

Microchip MPLAB XC8 Assembler V2.40 build 20220703182018 
                                                                                               Tue Jan 24 01:19:14 2023

Microchip MPLAB XC8 C Compiler v2.40 (Free license) build 20220703182018 Og1 
     1                           	processor	16F887
     2                           	pagewidth 120
     3                           	opt	flic
     4                           	psect	idataBANK0,global,class=CODE,delta=2,noexec
     5                           	psect	cinit,global,class=CODE,merge=1,delta=2
     6                           	psect	bssCOMMON,global,class=COMMON,space=1,delta=1,noexec
     7                           	psect	bssBANK0,global,class=BANK0,space=1,delta=1,noexec
     8                           	psect	dataBANK0,global,class=BANK0,space=1,delta=1,noexec
     9                           	psect	inittext,global,class=CODE,delta=2
    10                           	psect	cstackCOMMON,global,class=COMMON,space=1,delta=1,noexec
    11                           	psect	cstackBANK0,global,class=BANK0,space=1,delta=1,noexec
    12                           	psect	maintext,global,class=CODE,split=1,delta=2
    13                           	psect	text1,local,class=CODE,merge=1,delta=2
    14                           	psect	text2,local,class=CODE,merge=1,delta=2
    15                           	psect	text3,local,class=CODE,merge=1,delta=2
    16                           	psect	text4,local,class=CODE,merge=1,delta=2
    17                           	psect	text5,local,class=CODE,merge=1,delta=2
    18                           	psect	text6,local,class=CODE,merge=1,delta=2
    19                           	psect	text7,local,class=CODE,merge=1,delta=2
    20                           	psect	text8,local,class=CODE,merge=1,delta=2
    21                           	psect	text9,local,class=CODE,merge=1,delta=2
    22                           	psect	text10,local,class=CODE,merge=1,delta=2
    23                           	psect	text11,local,class=CODE,merge=1,delta=2
    24                           	psect	text12,local,class=CODE,merge=1,delta=2
    25                           	psect	text13,local,class=CODE,merge=1,delta=2
    26                           	psect	text14,local,class=CODE,merge=1,delta=2
    27                           	psect	text15,local,class=CODE,merge=1,delta=2
    28                           	psect	text16,local,class=CODE,merge=1,delta=2
    29                           	psect	text17,local,class=CODE,merge=1,delta=2
    30                           	psect	text18,local,class=CODE,merge=1,delta=2,group=1
    31                           	psect	text19,local,class=CODE,merge=1,delta=2
    32                           	psect	text20,local,class=CODE,merge=1,delta=2
    33                           	psect	text21,local,class=CODE,merge=1,delta=2
    34                           	psect	text22,local,class=CODE,merge=1,delta=2
    35                           	psect	text23,local,class=CODE,merge=1,delta=2
    36                           	psect	text24,local,class=CODE,merge=1,delta=2
    37                           	psect	text25,local,class=CODE,merge=1,delta=2
    38                           	psect	text26,local,class=CODE,merge=1,delta=2
    39                           	psect	text27,local,class=CODE,merge=1,delta=2
    40                           	psect	text28,local,class=CODE,merge=1,delta=2
    41                           	psect	text29,local,class=CODE,merge=1,delta=2
    42                           	psect	text30,local,class=CODE,merge=1,delta=2
    43                           	psect	intentry,global,class=CODE,delta=2
    44                           	psect	text31,local,class=CODE,merge=1,delta=2
    45                           	psect	text32,local,class=CODE,merge=1,delta=2
    46                           	psect	text33,local,class=CODE,merge=1,delta=2
    47                           	psect	idloc,global,abs,ovrld,class=IDLOC,space=5,delta=2,noexec
    48                           	psect	config,global,abs,ovrld,class=CONFIG,space=4,delta=2,noexec
    49                           	dabs	1,0x7E,2
    50     0000                     
    51                           ; Version 2.40
    52                           ; Generated 17/11/2021 GMT
    53                           ; 
    54                           ; Copyright © 2021, Microchip Technology Inc. and its subsidiaries ("Microchip")
    55                           ; All rights reserved.
    56                           ; 
    57                           ; This software is developed by Microchip Technology Inc. and its subsidiaries ("Microch
      +                          ip").
    58                           ; 
    59                           ; Redistribution and use in source and binary forms, with or without modification, are
    60                           ; permitted provided that the following conditions are met:
    61                           ; 
    62                           ;     1. Redistributions of source code must retain the above copyright notice, this lis
      +                          t of
    63                           ;        conditions and the following disclaimer.
    64                           ; 
    65                           ;     2. Redistributions in binary form must reproduce the above copyright notice, this 
      +                          list
    66                           ;        of conditions and the following disclaimer in the documentation and/or other
    67                           ;        materials provided with the distribution. Publication is not required when
    68                           ;        this file is used in an embedded application.
    69                           ; 
    70                           ;     3. Microchip's name may not be used to endorse or promote products derived from th
      +                          is
    71                           ;        software without specific prior written permission.
    72                           ; 
    73                           ; THIS SOFTWARE IS PROVIDED BY MICROCHIP "AS IS" AND ANY EXPRESS OR IMPLIED WARRANTIES,
    74                           ; INCLUDING, BUT NOT LIMITED TO, THE IMPLIED WARRANTIES OF MERCHANTABILITY AND FITNESS F
      +                          OR
    75                           ; PURPOSE ARE DISCLAIMED.  IN NO EVENT SHALL MICROCHIP BE LIABLE FOR ANY DIRECT, INDIREC
      +                          T,
    76                           ; INCIDENTAL, SPECIAL, EXEMPLARY, OR CONSEQUENTIAL DAMAGES (INCLUDING BUT NOT LIMITED TO
    77                           ; PROCUREMENT OF SUBSTITUTE GOODS OR SERVICES; LOSS OF USE, DATA OR PROFITS; OR BUSINESS
    78                           ; INTERRUPTION) HOWSOEVER CAUSED AND ON ANY THEORY OF LIABILITY, WHETHER IN CONTRACT, ST
      +                          RICT
    79                           ; LIABILITY, OR TORT (INCLUDING NEGLIGENCE OR OTHERWISE) ARISING IN ANY WAY OUT OF THE U
      +                          SE OF
    80                           ; THIS SOFTWARE, EVEN IF ADVISED OF THE POSSIBILITY OF SUCH DAMAGE.
    81                           ; 
    82                           ; 
    83                           ; Code-generator required, PIC16F887 Definitions
    84                           ; 
    85                           ; SFR Addresses
    86     0000                     	;# 
    87     0001                     	;# 
    88     0002                     	;# 
    89     0003                     	;# 
    90     0004                     	;# 
    91     0005                     	;# 
    92     0006                     	;# 
    93     0007                     	;# 
    94     0008                     	;# 
    95     0009                     	;# 
    96     000A                     	;# 
    97     000B                     	;# 
    98     000C                     	;# 
    99     000D                     	;# 
   100     000E                     	;# 
   101     000E                     	;# 
   102     000F                     	;# 
   103     0010                     	;# 
   104     0011                     	;# 
   105     0012                     	;# 
   106     0013                     	;# 
   107     0014                     	;# 
   108     0015                     	;# 
   109     0015                     	;# 
   110     0016                     	;# 
   111     0017                     	;# 
   112     0018                     	;# 
   113     0019                     	;# 
   114     001A                     	;# 
   115     001B                     	;# 
   116     001B                     	;# 
   117     001C                     	;# 
   118     001D                     	;# 
   119     001E                     	;# 
   120     001F                     	;# 
   121     0081                     	;# 
   122     0085                     	;# 
   123     0086                     	;# 
   124     0087                     	;# 
   125     0088                     	;# 
   126     0089                     	;# 
   127     008C                     	;# 
   128     008D                     	;# 
   129     008E                     	;# 
   130     008F                     	;# 
   131     0090                     	;# 
   132     0091                     	;# 
   133     0092                     	;# 
   134     0093                     	;# 
   135     0093                     	;# 
   136     0093                     	;# 
   137     0094                     	;# 
   138     0095                     	;# 
   139     0096                     	;# 
   140     0097                     	;# 
   141     0098                     	;# 
   142     0099                     	;# 
   143     009A                     	;# 
   144     009B                     	;# 
   145     009C                     	;# 
   146     009D                     	;# 
   147     009E                     	;# 
   148     009F                     	;# 
   149     0105                     	;# 
   150     0107                     	;# 
   151     0108                     	;# 
   152     0109                     	;# 
   153     010C                     	;# 
   154     010C                     	;# 
   155     010D                     	;# 
   156     010E                     	;# 
   157     010F                     	;# 
   158     0185                     	;# 
   159     0187                     	;# 
   160     0188                     	;# 
   161     0189                     	;# 
   162     018C                     	;# 
   163     018D                     	;# 
   164     0000                     	;# 
   165     0001                     	;# 
   166     0002                     	;# 
   167     0003                     	;# 
   168     0004                     	;# 
   169     0005                     	;# 
   170     0006                     	;# 
   171     0007                     	;# 
   172     0008                     	;# 
   173     0009                     	;# 
   174     000A                     	;# 
   175     000B                     	;# 
   176     000C                     	;# 
   177     000D                     	;# 
   178     000E                     	;# 
   179     000E                     	;# 
   180     000F                     	;# 
   181     0010                     	;# 
   182     0011                     	;# 
   183     0012                     	;# 
   184     0013                     	;# 
   185     0014                     	;# 
   186     0015                     	;# 
   187     0015                     	;# 
   188     0016                     	;# 
   189     0017                     	;# 
   190     0018                     	;# 
   191     0019                     	;# 
   192     001A                     	;# 
   193     001B                     	;# 
   194     001B                     	;# 
   195     001C                     	;# 
   196     001D                     	;# 
   197     001E                     	;# 
   198     001F                     	;# 
   199     0081                     	;# 
   200     0085                     	;# 
   201     0086                     	;# 
   202     0087                     	;# 
   203     0088                     	;# 
   204     0089                     	;# 
   205     008C                     	;# 
   206     008D                     	;# 
   207     008E                     	;# 
   208     008F                     	;# 
   209     0090                     	;# 
   210     0091                     	;# 
   211     0092                     	;# 
   212     0093                     	;# 
   213     0093                     	;# 
   214     0093                     	;# 
   215     0094                     	;# 
   216     0095                     	;# 
   217     0096                     	;# 
   218     0097                     	;# 
   219     0098                     	;# 
   220     0099                     	;# 
   221     009A                     	;# 
   222     009B                     	;# 
   223     009C                     	;# 
   224     009D                     	;# 
   225     009E                     	;# 
   226     009F                     	;# 
   227     0105                     	;# 
   228     0107                     	;# 
   229     0108                     	;# 
   230     0109                     	;# 
   231     010C                     	;# 
   232     010C                     	;# 
   233     010D                     	;# 
   234     010E                     	;# 
   235     010F                     	;# 
   236     0185                     	;# 
   237     0187                     	;# 
   238     0188                     	;# 
   239     0189                     	;# 
   240     018C                     	;# 
   241     018D                     	;# 
   242     0000                     	;# 
   243     0001                     	;# 
   244     0002                     	;# 
   245     0003                     	;# 
   246     0004                     	;# 
   247     0005                     	;# 
   248     0006                     	;# 
   249     0007                     	;# 
   250     0008                     	;# 
   251     0009                     	;# 
   252     000A                     	;# 
   253     000B                     	;# 
   254     000C                     	;# 
   255     000D                     	;# 
   256     000E                     	;# 
   257     000E                     	;# 
   258     000F                     	;# 
   259     0010                     	;# 
   260     0011                     	;# 
   261     0012                     	;# 
   262     0013                     	;# 
   263     0014                     	;# 
   264     0015                     	;# 
   265     0015                     	;# 
   266     0016                     	;# 
   267     0017                     	;# 
   268     0018                     	;# 
   269     0019                     	;# 
   270     001A                     	;# 
   271     001B                     	;# 
   272     001B                     	;# 
   273     001C                     	;# 
   274     001D                     	;# 
   275     001E                     	;# 
   276     001F                     	;# 
   277     0081                     	;# 
   278     0085                     	;# 
   279     0086                     	;# 
   280     0087                     	;# 
   281     0088                     	;# 
   282     0089                     	;# 
   283     008C                     	;# 
   284     008D                     	;# 
   285     008E                     	;# 
   286     008F                     	;# 
   287     0090                     	;# 
   288     0091                     	;# 
   289     0092                     	;# 
   290     0093                     	;# 
   291     0093                     	;# 
   292     0093                     	;# 
   293     0094                     	;# 
   294     0095                     	;# 
   295     0096                     	;# 
   296     0097                     	;# 
   297     0098                     	;# 
   298     0099                     	;# 
   299     009A                     	;# 
   300     009B                     	;# 
   301     009C                     	;# 
   302     009D                     	;# 
   303     009E                     	;# 
   304     009F                     	;# 
   305     0105                     	;# 
   306     0107                     	;# 
   307     0108                     	;# 
   308     0109                     	;# 
   309     010C                     	;# 
   310     010C                     	;# 
   311     010D                     	;# 
   312     010E                     	;# 
   313     010F                     	;# 
   314     0185                     	;# 
   315     0187                     	;# 
   316     0188                     	;# 
   317     0189                     	;# 
   318     018C                     	;# 
   319     018D                     	;# 
   320     0000                     	;# 
   321     0001                     	;# 
   322     0002                     	;# 
   323     0003                     	;# 
   324     0004                     	;# 
   325     0005                     	;# 
   326     0006                     	;# 
   327     0007                     	;# 
   328     0008                     	;# 
   329     0009                     	;# 
   330     000A                     	;# 
   331     000B                     	;# 
   332     000C                     	;# 
   333     000D                     	;# 
   334     000E                     	;# 
   335     000E                     	;# 
   336     000F                     	;# 
   337     0010                     	;# 
   338     0011                     	;# 
   339     0012                     	;# 
   340     0013                     	;# 
   341     0014                     	;# 
   342     0015                     	;# 
   343     0015                     	;# 
   344     0016                     	;# 
   345     0017                     	;# 
   346     0018                     	;# 
   347     0019                     	;# 
   348     001A                     	;# 
   349     001B                     	;# 
   350     001B                     	;# 
   351     001C                     	;# 
   352     001D                     	;# 
   353     001E                     	;# 
   354     001F                     	;# 
   355     0081                     	;# 
   356     0085                     	;# 
   357     0086                     	;# 
   358     0087                     	;# 
   359     0088                     	;# 
   360     0089                     	;# 
   361     008C                     	;# 
   362     008D                     	;# 
   363     008E                     	;# 
   364     008F                     	;# 
   365     0090                     	;# 
   366     0091                     	;# 
   367     0092                     	;# 
   368     0093                     	;# 
   369     0093                     	;# 
   370     0093                     	;# 
   371     0094                     	;# 
   372     0095                     	;# 
   373     0096                     	;# 
   374     0097                     	;# 
   375     0098                     	;# 
   376     0099                     	;# 
   377     009A                     	;# 
   378     009B                     	;# 
   379     009C                     	;# 
   380     009D                     	;# 
   381     009E                     	;# 
   382     009F                     	;# 
   383     0105                     	;# 
   384     0107                     	;# 
   385     0108                     	;# 
   386     0109                     	;# 
   387     010C                     	;# 
   388     010C                     	;# 
   389     010D                     	;# 
   390     010E                     	;# 
   391     010F                     	;# 
   392     0185                     	;# 
   393     0187                     	;# 
   394     0188                     	;# 
   395     0189                     	;# 
   396     018C                     	;# 
   397     018D                     	;# 
   398     0000                     	;# 
   399     0001                     	;# 
   400     0002                     	;# 
   401     0003                     	;# 
   402     0004                     	;# 
   403     0005                     	;# 
   404     0006                     	;# 
   405     0007                     	;# 
   406     0008                     	;# 
   407     0009                     	;# 
   408     000A                     	;# 
   409     000B                     	;# 
   410     000C                     	;# 
   411     000D                     	;# 
   412     000E                     	;# 
   413     000E                     	;# 
   414     000F                     	;# 
   415     0010                     	;# 
   416     0011                     	;# 
   417     0012                     	;# 
   418     0013                     	;# 
   419     0014                     	;# 
   420     0015                     	;# 
   421     0015                     	;# 
   422     0016                     	;# 
   423     0017                     	;# 
   424     0018                     	;# 
   425     0019                     	;# 
   426     001A                     	;# 
   427     001B                     	;# 
   428     001B                     	;# 
   429     001C                     	;# 
   430     001D                     	;# 
   431     001E                     	;# 
   432     001F                     	;# 
   433     0081                     	;# 
   434     0085                     	;# 
   435     0086                     	;# 
   436     0087                     	;# 
   437     0088                     	;# 
   438     0089                     	;# 
   439     008C                     	;# 
   440     008D                     	;# 
   441     008E                     	;# 
   442     008F                     	;# 
   443     0090                     	;# 
   444     0091                     	;# 
   445     0092                     	;# 
   446     0093                     	;# 
   447     0093                     	;# 
   448     0093                     	;# 
   449     0094                     	;# 
   450     0095                     	;# 
   451     0096                     	;# 
   452     0097                     	;# 
   453     0098                     	;# 
   454     0099                     	;# 
   455     009A                     	;# 
   456     009B                     	;# 
   457     009C                     	;# 
   458     009D                     	;# 
   459     009E                     	;# 
   460     009F                     	;# 
   461     0105                     	;# 
   462     0107                     	;# 
   463     0108                     	;# 
   464     0109                     	;# 
   465     010C                     	;# 
   466     010C                     	;# 
   467     010D                     	;# 
   468     010E                     	;# 
   469     010F                     	;# 
   470     0185                     	;# 
   471     0187                     	;# 
   472     0188                     	;# 
   473     0189                     	;# 
   474     018C                     	;# 
   475     018D                     	;# 
   476                           
   477                           	psect	idataBANK0
   478     0214                     __pidataBANK0:
   479                           
   480                           ;initializer for _nums
   481     0214  343F               	retlw	63
   482     0215  3406               	retlw	6
   483     0216  345B               	retlw	91
   484     0217  344F               	retlw	79
   485     0218  3466               	retlw	102
   486     0219  346D               	retlw	109
   487     021A  347D               	retlw	125
   488     021B  3407               	retlw	7
   489     021C  347F               	retlw	127
   490     021D  3467               	retlw	103
   491     021E  3477               	retlw	119
   492     021F  347C               	retlw	124
   493     0220  3439               	retlw	57
   494     0221  345E               	retlw	94
   495     0222  3479               	retlw	121
   496     0223  3471               	retlw	113
   497     0007                     _PORTCbits	set	7
   498     001E                     _ADRESH	set	30
   499     0009                     _PORTE	set	9
   500     0007                     _PORTC	set	7
   501     0006                     _PORTB	set	6
   502     0005                     _PORTA	set	5
   503     0008                     _PORTD	set	8
   504     0006                     _PORTBbits	set	6
   505     000C                     _PIR1bits	set	12
   506     000B                     _INTCONbits	set	11
   507     001F                     _ADCON0bits	set	31
   508     0001                     _TMR0	set	1
   509     009F                     _ADCON1bits	set	159
   510     0096                     _IOCBbits	set	150
   511     0095                     _WPUBbits	set	149
   512     008C                     _PIE1bits	set	140
   513     0081                     _OPTION_REGbits	set	129
   514     0086                     _TRISBbits	set	134
   515     0088                     _TRISD	set	136
   516     0087                     _TRISC	set	135
   517     0086                     _TRISB	set	134
   518     0085                     _TRISA	set	133
   519     008F                     _OSCCONbits	set	143
   520     0189                     _ANSELH	set	393
   521     0188                     _ANSEL	set	392
   522                           
   523                           	psect	cinit
   524     0011                     start_initialization:	
   525                           ; #config settings
   526                           
   527     0011                     __initialization:
   528                           
   529                           ; Initialize objects allocated to BANK0
   530     0011  1383               	bcf	3,7	;select IRP bank0
   531     0012  3030               	movlw	low (__pdataBANK0+16)
   532     0013  00FD               	movwf	btemp+-1
   533     0014  3002               	movlw	high __pidataBANK0
   534     0015  00FE               	movwf	btemp
   535     0016  3014               	movlw	low __pidataBANK0
   536     0017  00FF               	movwf	btemp+1
   537     0018  3020               	movlw	low __pdataBANK0
   538     0019  0084               	movwf	4
   539     001A  120A  118A  2205  120A  118A  	fcall	init_ram0
   540                           
   541                           ; Clear objects allocated to BANK0
   542     001F  01BB               	clrf	__pbssBANK0& (0+127)
   543     0020  01BC               	clrf	(__pbssBANK0+1)& (0+127)
   544     0021  01BD               	clrf	(__pbssBANK0+2)& (0+127)
   545     0022  01BE               	clrf	(__pbssBANK0+3)& (0+127)
   546     0023  01BF               	clrf	(__pbssBANK0+4)& (0+127)
   547     0024  01C0               	clrf	(__pbssBANK0+5)& (0+127)
   548     0025  01C1               	clrf	(__pbssBANK0+6)& (0+127)
   549     0026  01C2               	clrf	(__pbssBANK0+7)& (0+127)
   550     0027  01C3               	clrf	(__pbssBANK0+8)& (0+127)
   551     0028  01C4               	clrf	(__pbssBANK0+9)& (0+127)
   552                           
   553                           ; Clear objects allocated to COMMON
   554     0029  01F7               	clrf	__pbssCOMMON& (0+127)
   555     002A  01F8               	clrf	(__pbssCOMMON+1)& (0+127)
   556     002B  01F9               	clrf	(__pbssCOMMON+2)& (0+127)
   557     002C  01FA               	clrf	(__pbssCOMMON+3)& (0+127)
   558     002D  01FB               	clrf	(__pbssCOMMON+4)& (0+127)
   559     002E  01FC               	clrf	(__pbssCOMMON+5)& (0+127)
   560     002F                     end_of_initialization:	
   561                           ;End of C runtime variable initialization code
   562                           
   563     002F                     __end_of__initialization:
   564     002F  0183               	clrf	3
   565     0030  120A  118A  2833   	ljmp	_main	;jump to C main() function
   566                           
   567                           	psect	bssCOMMON
   568     0077                     __pbssCOMMON:
   569     0077                     _select:
   570     0077                     	ds	2
   571     0079                     _bandera:
   572     0079                     	ds	2
   573     007B                     _digital_value:
   574     007B                     	ds	2
   575                           
   576                           	psect	bssBANK0
   577     003B                     __pbssBANK0:
   578     003B                     _num_adc:
   579     003B                     	ds	2
   580     003D                     _value:
   581     003D                     	ds	2
   582     003F                     _dis:
   583     003F                     	ds	2
   584     0041                     _H2:
   585     0041                     	ds	2
   586     0043                     _H1:
   587     0043                     	ds	2
   588                           
   589                           	psect	dataBANK0
   590     0020                     __pdataBANK0:
   591     0020                     _nums:
   592     0020                     	ds	16
   593                           
   594                           	psect	inittext
   595     0201                     init_fetch0:	
   596                           ;	Called with low address in FSR and high address in W
   597                           
   598     0201  087E               	movf	btemp,w
   599     0202  008A               	movwf	10
   600     0203  087F               	movf	btemp+1,w
   601     0204  0082               	movwf	2
   602     0205                     init_ram0:	
   603                           ;Called with:
   604                           ;	high address of idata address in btemp 
   605                           ;	low address of idata address in btemp+1 
   606                           ;	low address of data in FSR
   607                           ;	high address + 1 of data in btemp-1
   608                           
   609     0205  120A  118A  2201  120A  118A  	fcall	init_fetch0
   610     020A  0080               	movwf	0
   611     020B  0A84               	incf	4,f
   612     020C  0804               	movf	4,w
   613     020D  067D               	xorwf	btemp+-1,w
   614     020E  1903               	btfsc	3,2
   615     020F  3400               	retlw	0
   616     0210  0AFF               	incf	btemp+1,f
   617     0211  1903               	btfsc	3,2
   618     0212  0AFE               	incf	btemp,f
   619     0213  2A05               	goto	init_ram0
   620                           
   621                           	psect	cstackCOMMON
   622     0070                     __pcstackCOMMON:
   623     0070                     ?_osc4MHz:
   624     0070                     ?_initiateports:	
   625                           ; 1 bytes @ 0x0
   626                           
   627     0070                     ?_digital_low:	
   628                           ; 1 bytes @ 0x0
   629                           
   630     0070                     ?_analog_12:	
   631                           ; 1 bytes @ 0x0
   632                           
   633     0070                     ?_portA_digout:	
   634                           ; 1 bytes @ 0x0
   635                           
   636     0070                     ?_portC_digout:	
   637                           ; 1 bytes @ 0x0
   638                           
   639     0070                     ?_portD_digout:	
   640                           ; 1 bytes @ 0x0
   641                           
   642     0070                     ?_pinRB7_digin:	
   643                           ; 1 bytes @ 0x0
   644                           
   645     0070                     ?_pinRB6_digin:	
   646                           ; 1 bytes @ 0x0
   647                           
   648     0070                     ?_pinRB0_digin:	
   649                           ; 1 bytes @ 0x0
   650                           
   651     0070                     ?_portB_pullups:	
   652                           ; 1 bytes @ 0x0
   653                           
   654     0070                     ?_global_interruptions_on:	
   655                           ; 1 bytes @ 0x0
   656                           
   657     0070                     ?_peripheral_interruptions_on:	
   658                           ; 1 bytes @ 0x0
   659                           
   660     0070                     ?_Timer0_interruption_on:	
   661                           ; 1 bytes @ 0x0
   662                           
   663     0070                     ?_Timer0_source:	
   664                           ; 1 bytes @ 0x0
   665                           
   666     0070                     ?_Timer0_prescaler256:	
   667                           ; 1 bytes @ 0x0
   668                           
   669     0070                     ?_portB_interruptions_on:	
   670                           ; 1 bytes @ 0x0
   671                           
   672     0070                     ?_ADC_interruptions_on:	
   673                           ; 1 bytes @ 0x0
   674                           
   675     0070                     ?_pullup_RB7:	
   676                           ; 1 bytes @ 0x0
   677                           
   678     0070                     ?_pullup_RB6:	
   679                           ; 1 bytes @ 0x0
   680                           
   681     0070                     ?_interrupt_onchange_RB7:	
   682                           ; 1 bytes @ 0x0
   683                           
   684     0070                     ?_interrupt_onchange_RB6:	
   685                           ; 1 bytes @ 0x0
   686                           
   687     0070                     ?_ADC_clock_fosc8:	
   688                           ; 1 bytes @ 0x0
   689                           
   690     0070                     ?_ADC_reference_default:	
   691                           ; 1 bytes @ 0x0
   692                           
   693     0070                     ?_ADC_8bits:	
   694                           ; 1 bytes @ 0x0
   695                           
   696     0070                     ?_ADC_AN12:	
   697                           ; 1 bytes @ 0x0
   698                           
   699     0070                     ?_ADC_on:	
   700                           ; 1 bytes @ 0x0
   701                           
   702     0070                     ?_mux:	
   703                           ; 1 bytes @ 0x0
   704                           
   705     0070                     ?_contador:	
   706                           ; 1 bytes @ 0x0
   707                           
   708     0070                     ??_contador:	
   709                           ; 1 bytes @ 0x0
   710                           
   711     0070                     ?_main:	
   712                           ; 1 bytes @ 0x0
   713                           
   714     0070                     ?_isr:	
   715                           ; 1 bytes @ 0x0
   716                           
   717     0070                     ?_ADC_conversion:	
   718                           ; 1 bytes @ 0x0
   719                           
   720     0070                     mux@selector:	
   721                           ; 2 bytes @ 0x0
   722                           
   723                           
   724                           ; 2 bytes @ 0x0
   725     0070                     	ds	2
   726     0072                     ??_mux:
   727     0072                     ??_ADC_conversion:	
   728                           ; 1 bytes @ 0x2
   729                           
   730                           
   731                           ; 1 bytes @ 0x2
   732     0072                     	ds	2
   733     0074                     ??_isr:
   734                           
   735                           ; 1 bytes @ 0x4
   736     0074                     	ds	3
   737                           
   738                           	psect	cstackBANK0
   739     0030                     __pcstackBANK0:
   740     0030                     ??_osc4MHz:
   741     0030                     ??_initiateports:	
   742                           ; 1 bytes @ 0x0
   743                           
   744     0030                     ??_digital_low:	
   745                           ; 1 bytes @ 0x0
   746                           
   747     0030                     ??_analog_12:	
   748                           ; 1 bytes @ 0x0
   749                           
   750     0030                     ??_portA_digout:	
   751                           ; 1 bytes @ 0x0
   752                           
   753     0030                     ??_portC_digout:	
   754                           ; 1 bytes @ 0x0
   755                           
   756     0030                     ??_portD_digout:	
   757                           ; 1 bytes @ 0x0
   758                           
   759     0030                     ??_pinRB7_digin:	
   760                           ; 1 bytes @ 0x0
   761                           
   762     0030                     ??_pinRB6_digin:	
   763                           ; 1 bytes @ 0x0
   764                           
   765     0030                     ??_pinRB0_digin:	
   766                           ; 1 bytes @ 0x0
   767                           
   768     0030                     ??_portB_pullups:	
   769                           ; 1 bytes @ 0x0
   770                           
   771     0030                     ??_global_interruptions_on:	
   772                           ; 1 bytes @ 0x0
   773                           
   774     0030                     ??_peripheral_interruptions_on:	
   775                           ; 1 bytes @ 0x0
   776                           
   777     0030                     ??_Timer0_interruption_on:	
   778                           ; 1 bytes @ 0x0
   779                           
   780     0030                     ??_Timer0_source:	
   781                           ; 1 bytes @ 0x0
   782                           
   783     0030                     ??_Timer0_prescaler256:	
   784                           ; 1 bytes @ 0x0
   785                           
   786     0030                     ??_portB_interruptions_on:	
   787                           ; 1 bytes @ 0x0
   788                           
   789     0030                     ??_ADC_interruptions_on:	
   790                           ; 1 bytes @ 0x0
   791                           
   792     0030                     ??_pullup_RB7:	
   793                           ; 1 bytes @ 0x0
   794                           
   795     0030                     ??_pullup_RB6:	
   796                           ; 1 bytes @ 0x0
   797                           
   798     0030                     ??_interrupt_onchange_RB7:	
   799                           ; 1 bytes @ 0x0
   800                           
   801     0030                     ??_interrupt_onchange_RB6:	
   802                           ; 1 bytes @ 0x0
   803                           
   804     0030                     ??_ADC_clock_fosc8:	
   805                           ; 1 bytes @ 0x0
   806                           
   807     0030                     ??_ADC_reference_default:	
   808                           ; 1 bytes @ 0x0
   809                           
   810     0030                     ??_ADC_8bits:	
   811                           ; 1 bytes @ 0x0
   812                           
   813     0030                     ??_ADC_AN12:	
   814                           ; 1 bytes @ 0x0
   815                           
   816     0030                     ??_ADC_on:	
   817                           ; 1 bytes @ 0x0
   818                           
   819     0030                     ?___awdiv:	
   820                           ; 1 bytes @ 0x0
   821                           
   822     0030                     ___awdiv@divisor:	
   823                           ; 2 bytes @ 0x0
   824                           
   825                           
   826                           ; 2 bytes @ 0x0
   827     0030                     	ds	2
   828     0032                     ___awdiv@dividend:
   829                           
   830                           ; 2 bytes @ 0x2
   831     0032                     	ds	2
   832     0034                     ??___awdiv:
   833                           
   834                           ; 1 bytes @ 0x4
   835     0034                     	ds	1
   836     0035                     ___awdiv@counter:
   837                           
   838                           ; 1 bytes @ 0x5
   839     0035                     	ds	1
   840     0036                     ___awdiv@sign:
   841                           
   842                           ; 1 bytes @ 0x6
   843     0036                     	ds	1
   844     0037                     ___awdiv@quotient:
   845                           
   846                           ; 2 bytes @ 0x7
   847     0037                     	ds	2
   848     0039                     ?_display_hex:
   849     0039                     display_hex@value:	
   850                           ; 1 bytes @ 0x9
   851                           
   852                           
   853                           ; 2 bytes @ 0x9
   854     0039                     	ds	2
   855     003B                     ??_display_hex:
   856     003B                     ??_main:	
   857                           ; 1 bytes @ 0xB
   858                           
   859                           
   860                           	psect	maintext
   861     0033                     __pmaintext:	
   862                           ; 1 bytes @ 0xB
   863 ;;
   864 ;;Main: autosize = 0, tempsize = 0, incstack = 0, save=0
   865 ;;
   866 ;; *************** function _main *****************
   867 ;; Defined at:
   868 ;;		line 40 in file "main.c"
   869 ;; Parameters:    Size  Location     Type
   870 ;;		None
   871 ;; Auto vars:     Size  Location     Type
   872 ;;		None
   873 ;; Return value:  Size  Location     Type
   874 ;;                  1    wreg      void 
   875 ;; Registers used:
   876 ;;		wreg, status,2, status,0, pclath, cstack
   877 ;; Tracked objects:
   878 ;;		On entry : B00/0
   879 ;;		On exit  : 0/0
   880 ;;		Unchanged: 0/0
   881 ;; Data sizes:     COMMON   BANK0   BANK1   BANK3   BANK2
   882 ;;      Params:         0       0       0       0       0
   883 ;;      Locals:         0       0       0       0       0
   884 ;;      Temps:          0       0       0       0       0
   885 ;;      Totals:         0       0       0       0       0
   886 ;;Total ram usage:        0 bytes
   887 ;; Hardware stack levels required when called: 4
   888 ;; This function calls:
   889 ;;		_ADC_8bits
   890 ;;		_ADC_AN12
   891 ;;		_ADC_clock_fosc8
   892 ;;		_ADC_interruptions_on
   893 ;;		_ADC_on
   894 ;;		_ADC_reference_default
   895 ;;		_Timer0_interruption_on
   896 ;;		_Timer0_prescaler256
   897 ;;		_Timer0_source
   898 ;;		_analog_12
   899 ;;		_digital_low
   900 ;;		_display_hex
   901 ;;		_global_interruptions_on
   902 ;;		_initiateports
   903 ;;		_interrupt_onchange_RB6
   904 ;;		_interrupt_onchange_RB7
   905 ;;		_osc4MHz
   906 ;;		_peripheral_interruptions_on
   907 ;;		_pinRB0_digin
   908 ;;		_pinRB6_digin
   909 ;;		_pinRB7_digin
   910 ;;		_portA_digout
   911 ;;		_portB_interruptions_on
   912 ;;		_portB_pullups
   913 ;;		_portC_digout
   914 ;;		_portD_digout
   915 ;;		_pullup_RB6
   916 ;;		_pullup_RB7
   917 ;; This function is called by:
   918 ;;		Startup code after reset
   919 ;; This function uses a non-reentrant model
   920 ;;
   921                           
   922     0033                     _main:	
   923                           ;psect for function _main
   924                           
   925     0033                     l1414:	
   926                           ;incstack = 0
   927                           ; Regs used in _main: [wreg+status,2+status,0+pclath+cstack]
   928                           
   929                           
   930                           ;main.c: 41:     osc4MHz();
   931     0033  120A  118A  2245  120A  118A  	fcall	_osc4MHz
   932                           
   933                           ;main.c: 42:     initiateports();
   934     0038  120A  118A  223D  120A  118A  	fcall	_initiateports
   935                           
   936                           ;main.c: 43:     digital_low();
   937     003D  120A  118A  2299  120A  118A  	fcall	_digital_low
   938     0042                     l1416:
   939                           
   940                           ;main.c: 44:     analog_12();
   941     0042  120A  118A  2259  120A  118A  	fcall	_analog_12
   942     0047                     l1418:
   943                           
   944                           ;main.c: 45:     portA_digout();
   945     0047  120A  118A  2281  120A  118A  	fcall	_portA_digout
   946     004C                     l1420:
   947                           
   948                           ;main.c: 46:     portC_digout();
   949     004C  120A  118A  2279  120A  118A  	fcall	_portC_digout
   950     0051                     l1422:
   951                           
   952                           ;main.c: 47:     portD_digout();
   953     0051  120A  118A  2275  120A  118A  	fcall	_portD_digout
   954     0056                     l1424:
   955                           
   956                           ;main.c: 48:     pinRB7_digin();
   957     0056  120A  118A  2285  120A  118A  	fcall	_pinRB7_digin
   958     005B                     l1426:
   959                           
   960                           ;main.c: 49:     pinRB6_digin();
   961     005B  120A  118A  2289  120A  118A  	fcall	_pinRB6_digin
   962     0060                     l1428:
   963                           
   964                           ;main.c: 50:     pinRB0_digin();
   965     0060  120A  118A  228D  120A  118A  	fcall	_pinRB0_digin
   966     0065                     l1430:
   967                           
   968                           ;main.c: 51:     portB_pullups();
   969     0065  120A  118A  227D  120A  118A  	fcall	_portB_pullups
   970     006A                     l1432:
   971                           
   972                           ;main.c: 52:     global_interruptions_on();
   973     006A  120A  118A  22A9  120A  118A  	fcall	_global_interruptions_on
   974     006F                     l1434:
   975                           
   976                           ;main.c: 53:     peripheral_interruptions_on();
   977     006F  120A  118A  22A7  120A  118A  	fcall	_peripheral_interruptions_on
   978     0074                     l1436:
   979                           
   980                           ;main.c: 54:     Timer0_interruption_on();
   981     0074  120A  118A  22AB  120A  118A  	fcall	_Timer0_interruption_on
   982     0079                     l1438:
   983                           
   984                           ;main.c: 55:     Timer0_source();
   985     0079  120A  118A  225E  120A  118A  	fcall	_Timer0_source
   986     007E                     l1440:
   987                           
   988                           ;main.c: 56:     Timer0_prescaler256();
   989     007E  120A  118A  2253  120A  118A  	fcall	_Timer0_prescaler256
   990     0083                     l1442:
   991                           
   992                           ;main.c: 57:     portB_interruptions_on();
   993     0083  120A  118A  22A5  120A  118A  	fcall	_portB_interruptions_on
   994     0088                     l1444:
   995                           
   996                           ;main.c: 58:     ADC_interruptions_on();
   997     0088  120A  118A  229D  120A  118A  	fcall	_ADC_interruptions_on
   998     008D                     l1446:
   999                           
  1000                           ;main.c: 59:     pullup_RB7();
  1001     008D  120A  118A  226D  120A  118A  	fcall	_pullup_RB7
  1002     0092                     l1448:
  1003                           
  1004                           ;main.c: 60:     pullup_RB6();
  1005     0092  120A  118A  2271  120A  118A  	fcall	_pullup_RB6
  1006     0097                     l1450:
  1007                           
  1008                           ;main.c: 61:     interrupt_onchange_RB7();
  1009     0097  120A  118A  2291  120A  118A  	fcall	_interrupt_onchange_RB7
  1010     009C                     l1452:
  1011                           
  1012                           ;main.c: 62:     interrupt_onchange_RB6();
  1013     009C  120A  118A  2295  120A  118A  	fcall	_interrupt_onchange_RB6
  1014     00A1                     l1454:
  1015                           
  1016                           ;main.c: 63:     ADC_clock_fosc8();
  1017     00A1  120A  118A  2268  120A  118A  	fcall	_ADC_clock_fosc8
  1018     00A6                     l1456:
  1019                           
  1020                           ;main.c: 64:     ADC_reference_default();
  1021     00A6  120A  118A  2263  120A  118A  	fcall	_ADC_reference_default
  1022     00AB                     l1458:
  1023                           
  1024                           ;main.c: 65:     ADC_8bits();
  1025     00AB  120A  118A  22A1  120A  118A  	fcall	_ADC_8bits
  1026     00B0                     l1460:
  1027                           
  1028                           ;main.c: 66:     ADC_AN12();
  1029     00B0  120A  118A  224C  120A  118A  	fcall	_ADC_AN12
  1030     00B5                     l1462:
  1031                           
  1032                           ;main.c: 67:     ADC_on();
  1033     00B5  120A  118A  2232  120A  118A  	fcall	_ADC_on
  1034     00BA                     l1464:
  1035                           
  1036                           ;main.c: 68:     TMR0 = 236;
  1037     00BA  30EC               	movlw	236
  1038     00BB  1283               	bcf	3,5	;RP0=0, select bank0
  1039     00BC  1303               	bcf	3,6	;RP1=0, select bank0
  1040     00BD  0081               	movwf	1	;volatile
  1041     00BE                     l1466:
  1042                           
  1043                           ;main.c: 70:         ADCON0bits.GO = 1;
  1044     00BE  1283               	bcf	3,5	;RP0=0, select bank0
  1045     00BF  1303               	bcf	3,6	;RP1=0, select bank0
  1046     00C0  149F               	bsf	31,1	;volatile
  1047                           
  1048                           ;main.c: 71:         display_hex(num_adc);
  1049     00C1  083C               	movf	_num_adc+1,w
  1050     00C2  00BA               	movwf	display_hex@value+1
  1051     00C3  083B               	movf	_num_adc,w
  1052     00C4  00B9               	movwf	display_hex@value
  1053     00C5  120A  118A  21BB  120A  118A  	fcall	_display_hex
  1054     00CA  28BE               	goto	l1466
  1055     00CB  120A  118A  280E   	ljmp	start
  1056     00CE                     __end_of_main:
  1057                           
  1058                           	psect	text1
  1059     026D                     __ptext1:	
  1060 ;; *************** function _pullup_RB7 *****************
  1061 ;; Defined at:
  1062 ;;		line 108 in file "setup.c"
  1063 ;; Parameters:    Size  Location     Type
  1064 ;;		None
  1065 ;; Auto vars:     Size  Location     Type
  1066 ;;		None
  1067 ;; Return value:  Size  Location     Type
  1068 ;;                  1    wreg      void 
  1069 ;; Registers used:
  1070 ;;		None
  1071 ;; Tracked objects:
  1072 ;;		On entry : 0/0
  1073 ;;		On exit  : 0/0
  1074 ;;		Unchanged: 0/0
  1075 ;; Data sizes:     COMMON   BANK0   BANK1   BANK3   BANK2
  1076 ;;      Params:         0       0       0       0       0
  1077 ;;      Locals:         0       0       0       0       0
  1078 ;;      Temps:          0       0       0       0       0
  1079 ;;      Totals:         0       0       0       0       0
  1080 ;;Total ram usage:        0 bytes
  1081 ;; Hardware stack levels used: 1
  1082 ;; Hardware stack levels required when called: 2
  1083 ;; This function calls:
  1084 ;;		Nothing
  1085 ;; This function is called by:
  1086 ;;		_main
  1087 ;; This function uses a non-reentrant model
  1088 ;;
  1089                           
  1090     026D                     _pullup_RB7:	
  1091                           ;psect for function _pullup_RB7
  1092                           
  1093     026D                     l1390:	
  1094                           ;incstack = 0
  1095                           ; Regs used in _pullup_RB7: []
  1096                           
  1097                           
  1098                           ;setup.c: 109:     WPUBbits.WPUB7 = 1;
  1099     026D  1683               	bsf	3,5	;RP0=1, select bank1
  1100     026E  1303               	bcf	3,6	;RP1=0, select bank1
  1101     026F  1795               	bsf	21,7	;volatile
  1102     0270                     l219:
  1103     0270  0008               	return
  1104     0271                     __end_of_pullup_RB7:
  1105                           
  1106                           	psect	text2
  1107     0271                     __ptext2:	
  1108 ;; *************** function _pullup_RB6 *****************
  1109 ;; Defined at:
  1110 ;;		line 112 in file "setup.c"
  1111 ;; Parameters:    Size  Location     Type
  1112 ;;		None
  1113 ;; Auto vars:     Size  Location     Type
  1114 ;;		None
  1115 ;; Return value:  Size  Location     Type
  1116 ;;                  1    wreg      void 
  1117 ;; Registers used:
  1118 ;;		None
  1119 ;; Tracked objects:
  1120 ;;		On entry : 0/0
  1121 ;;		On exit  : 0/0
  1122 ;;		Unchanged: 0/0
  1123 ;; Data sizes:     COMMON   BANK0   BANK1   BANK3   BANK2
  1124 ;;      Params:         0       0       0       0       0
  1125 ;;      Locals:         0       0       0       0       0
  1126 ;;      Temps:          0       0       0       0       0
  1127 ;;      Totals:         0       0       0       0       0
  1128 ;;Total ram usage:        0 bytes
  1129 ;; Hardware stack levels used: 1
  1130 ;; Hardware stack levels required when called: 2
  1131 ;; This function calls:
  1132 ;;		Nothing
  1133 ;; This function is called by:
  1134 ;;		_main
  1135 ;; This function uses a non-reentrant model
  1136 ;;
  1137                           
  1138     0271                     _pullup_RB6:	
  1139                           ;psect for function _pullup_RB6
  1140                           
  1141     0271                     l1392:	
  1142                           ;incstack = 0
  1143                           ; Regs used in _pullup_RB6: []
  1144                           
  1145                           
  1146                           ;setup.c: 113:     WPUBbits.WPUB6 = 1;
  1147     0271  1683               	bsf	3,5	;RP0=1, select bank1
  1148     0272  1303               	bcf	3,6	;RP1=0, select bank1
  1149     0273  1715               	bsf	21,6	;volatile
  1150     0274                     l222:
  1151     0274  0008               	return
  1152     0275                     __end_of_pullup_RB6:
  1153                           
  1154                           	psect	text3
  1155     0275                     __ptext3:	
  1156 ;; *************** function _portD_digout *****************
  1157 ;; Defined at:
  1158 ;;		line 53 in file "setup.c"
  1159 ;; Parameters:    Size  Location     Type
  1160 ;;		None
  1161 ;; Auto vars:     Size  Location     Type
  1162 ;;		None
  1163 ;; Return value:  Size  Location     Type
  1164 ;;                  1    wreg      void 
  1165 ;; Registers used:
  1166 ;;		status,2
  1167 ;; Tracked objects:
  1168 ;;		On entry : 0/0
  1169 ;;		On exit  : 0/0
  1170 ;;		Unchanged: 0/0
  1171 ;; Data sizes:     COMMON   BANK0   BANK1   BANK3   BANK2
  1172 ;;      Params:         0       0       0       0       0
  1173 ;;      Locals:         0       0       0       0       0
  1174 ;;      Temps:          0       0       0       0       0
  1175 ;;      Totals:         0       0       0       0       0
  1176 ;;Total ram usage:        0 bytes
  1177 ;; Hardware stack levels used: 1
  1178 ;; Hardware stack levels required when called: 2
  1179 ;; This function calls:
  1180 ;;		Nothing
  1181 ;; This function is called by:
  1182 ;;		_main
  1183 ;; This function uses a non-reentrant model
  1184 ;;
  1185                           
  1186     0275                     _portD_digout:	
  1187                           ;psect for function _portD_digout
  1188                           
  1189     0275                     l1366:	
  1190                           ;incstack = 0
  1191                           ; Regs used in _portD_digout: [status,2]
  1192                           
  1193                           
  1194                           ;setup.c: 54:     TRISD = 0;
  1195     0275  1683               	bsf	3,5	;RP0=1, select bank1
  1196     0276  1303               	bcf	3,6	;RP1=0, select bank1
  1197     0277  0188               	clrf	8	;volatile
  1198     0278                     l180:
  1199     0278  0008               	return
  1200     0279                     __end_of_portD_digout:
  1201                           
  1202                           	psect	text4
  1203     0279                     __ptext4:	
  1204 ;; *************** function _portC_digout *****************
  1205 ;; Defined at:
  1206 ;;		line 49 in file "setup.c"
  1207 ;; Parameters:    Size  Location     Type
  1208 ;;		None
  1209 ;; Auto vars:     Size  Location     Type
  1210 ;;		None
  1211 ;; Return value:  Size  Location     Type
  1212 ;;                  1    wreg      void 
  1213 ;; Registers used:
  1214 ;;		status,2
  1215 ;; Tracked objects:
  1216 ;;		On entry : 0/0
  1217 ;;		On exit  : 0/0
  1218 ;;		Unchanged: 0/0
  1219 ;; Data sizes:     COMMON   BANK0   BANK1   BANK3   BANK2
  1220 ;;      Params:         0       0       0       0       0
  1221 ;;      Locals:         0       0       0       0       0
  1222 ;;      Temps:          0       0       0       0       0
  1223 ;;      Totals:         0       0       0       0       0
  1224 ;;Total ram usage:        0 bytes
  1225 ;; Hardware stack levels used: 1
  1226 ;; Hardware stack levels required when called: 2
  1227 ;; This function calls:
  1228 ;;		Nothing
  1229 ;; This function is called by:
  1230 ;;		_main
  1231 ;; This function uses a non-reentrant model
  1232 ;;
  1233                           
  1234     0279                     _portC_digout:	
  1235                           ;psect for function _portC_digout
  1236                           
  1237     0279                     l1364:	
  1238                           ;incstack = 0
  1239                           ; Regs used in _portC_digout: [status,2]
  1240                           
  1241                           
  1242                           ;setup.c: 50:     TRISC = 0;
  1243     0279  1683               	bsf	3,5	;RP0=1, select bank1
  1244     027A  1303               	bcf	3,6	;RP1=0, select bank1
  1245     027B  0187               	clrf	7	;volatile
  1246     027C                     l177:
  1247     027C  0008               	return
  1248     027D                     __end_of_portC_digout:
  1249                           
  1250                           	psect	text5
  1251     027D                     __ptext5:	
  1252 ;; *************** function _portB_pullups *****************
  1253 ;; Defined at:
  1254 ;;		line 69 in file "setup.c"
  1255 ;; Parameters:    Size  Location     Type
  1256 ;;		None
  1257 ;; Auto vars:     Size  Location     Type
  1258 ;;		None
  1259 ;; Return value:  Size  Location     Type
  1260 ;;                  1    wreg      void 
  1261 ;; Registers used:
  1262 ;;		None
  1263 ;; Tracked objects:
  1264 ;;		On entry : 0/0
  1265 ;;		On exit  : 0/0
  1266 ;;		Unchanged: 0/0
  1267 ;; Data sizes:     COMMON   BANK0   BANK1   BANK3   BANK2
  1268 ;;      Params:         0       0       0       0       0
  1269 ;;      Locals:         0       0       0       0       0
  1270 ;;      Temps:          0       0       0       0       0
  1271 ;;      Totals:         0       0       0       0       0
  1272 ;;Total ram usage:        0 bytes
  1273 ;; Hardware stack levels used: 1
  1274 ;; Hardware stack levels required when called: 2
  1275 ;; This function calls:
  1276 ;;		Nothing
  1277 ;; This function is called by:
  1278 ;;		_main
  1279 ;; This function uses a non-reentrant model
  1280 ;;
  1281                           
  1282     027D                     _portB_pullups:	
  1283                           ;psect for function _portB_pullups
  1284                           
  1285     027D                     l1374:	
  1286                           ;incstack = 0
  1287                           ; Regs used in _portB_pullups: []
  1288                           
  1289                           
  1290                           ;setup.c: 70:     OPTION_REGbits.nRBPU = 0;
  1291     027D  1683               	bsf	3,5	;RP0=1, select bank1
  1292     027E  1303               	bcf	3,6	;RP1=0, select bank1
  1293     027F  1381               	bcf	1,7	;volatile
  1294     0280                     l192:
  1295     0280  0008               	return
  1296     0281                     __end_of_portB_pullups:
  1297                           
  1298                           	psect	text6
  1299     02A5                     __ptext6:	
  1300 ;; *************** function _portB_interruptions_on *****************
  1301 ;; Defined at:
  1302 ;;		line 85 in file "setup.c"
  1303 ;; Parameters:    Size  Location     Type
  1304 ;;		None
  1305 ;; Auto vars:     Size  Location     Type
  1306 ;;		None
  1307 ;; Return value:  Size  Location     Type
  1308 ;;                  1    wreg      void 
  1309 ;; Registers used:
  1310 ;;		None
  1311 ;; Tracked objects:
  1312 ;;		On entry : 0/0
  1313 ;;		On exit  : 0/0
  1314 ;;		Unchanged: 0/0
  1315 ;; Data sizes:     COMMON   BANK0   BANK1   BANK3   BANK2
  1316 ;;      Params:         0       0       0       0       0
  1317 ;;      Locals:         0       0       0       0       0
  1318 ;;      Temps:          0       0       0       0       0
  1319 ;;      Totals:         0       0       0       0       0
  1320 ;;Total ram usage:        0 bytes
  1321 ;; Hardware stack levels used: 1
  1322 ;; Hardware stack levels required when called: 2
  1323 ;; This function calls:
  1324 ;;		Nothing
  1325 ;; This function is called by:
  1326 ;;		_main
  1327 ;; This function uses a non-reentrant model
  1328 ;;
  1329                           
  1330     02A5                     _portB_interruptions_on:	
  1331                           ;psect for function _portB_interruptions_on
  1332                           
  1333     02A5                     l1386:	
  1334                           ;incstack = 0
  1335                           ; Regs used in _portB_interruptions_on: []
  1336                           
  1337                           
  1338                           ;setup.c: 86:     INTCONbits.RBIE = 1;
  1339     02A5  158B               	bsf	11,3	;volatile
  1340     02A6                     l204:
  1341     02A6  0008               	return
  1342     02A7                     __end_of_portB_interruptions_on:
  1343                           
  1344                           	psect	text7
  1345     0281                     __ptext7:	
  1346 ;; *************** function _portA_digout *****************
  1347 ;; Defined at:
  1348 ;;		line 41 in file "setup.c"
  1349 ;; Parameters:    Size  Location     Type
  1350 ;;		None
  1351 ;; Auto vars:     Size  Location     Type
  1352 ;;		None
  1353 ;; Return value:  Size  Location     Type
  1354 ;;                  1    wreg      void 
  1355 ;; Registers used:
  1356 ;;		status,2
  1357 ;; Tracked objects:
  1358 ;;		On entry : 0/0
  1359 ;;		On exit  : 0/0
  1360 ;;		Unchanged: 0/0
  1361 ;; Data sizes:     COMMON   BANK0   BANK1   BANK3   BANK2
  1362 ;;      Params:         0       0       0       0       0
  1363 ;;      Locals:         0       0       0       0       0
  1364 ;;      Temps:          0       0       0       0       0
  1365 ;;      Totals:         0       0       0       0       0
  1366 ;;Total ram usage:        0 bytes
  1367 ;; Hardware stack levels used: 1
  1368 ;; Hardware stack levels required when called: 2
  1369 ;; This function calls:
  1370 ;;		Nothing
  1371 ;; This function is called by:
  1372 ;;		_main
  1373 ;; This function uses a non-reentrant model
  1374 ;;
  1375                           
  1376     0281                     _portA_digout:	
  1377                           ;psect for function _portA_digout
  1378                           
  1379     0281                     l1362:	
  1380                           ;incstack = 0
  1381                           ; Regs used in _portA_digout: [status,2]
  1382                           
  1383                           
  1384                           ;setup.c: 42:     TRISA = 0;
  1385     0281  1683               	bsf	3,5	;RP0=1, select bank1
  1386     0282  1303               	bcf	3,6	;RP1=0, select bank1
  1387     0283  0185               	clrf	5	;volatile
  1388     0284                     l171:
  1389     0284  0008               	return
  1390     0285                     __end_of_portA_digout:
  1391                           
  1392                           	psect	text8
  1393     0285                     __ptext8:	
  1394 ;; *************** function _pinRB7_digin *****************
  1395 ;; Defined at:
  1396 ;;		line 57 in file "setup.c"
  1397 ;; Parameters:    Size  Location     Type
  1398 ;;		None
  1399 ;; Auto vars:     Size  Location     Type
  1400 ;;		None
  1401 ;; Return value:  Size  Location     Type
  1402 ;;                  1    wreg      void 
  1403 ;; Registers used:
  1404 ;;		None
  1405 ;; Tracked objects:
  1406 ;;		On entry : 0/0
  1407 ;;		On exit  : 0/0
  1408 ;;		Unchanged: 0/0
  1409 ;; Data sizes:     COMMON   BANK0   BANK1   BANK3   BANK2
  1410 ;;      Params:         0       0       0       0       0
  1411 ;;      Locals:         0       0       0       0       0
  1412 ;;      Temps:          0       0       0       0       0
  1413 ;;      Totals:         0       0       0       0       0
  1414 ;;Total ram usage:        0 bytes
  1415 ;; Hardware stack levels used: 1
  1416 ;; Hardware stack levels required when called: 2
  1417 ;; This function calls:
  1418 ;;		Nothing
  1419 ;; This function is called by:
  1420 ;;		_main
  1421 ;; This function uses a non-reentrant model
  1422 ;;
  1423                           
  1424     0285                     _pinRB7_digin:	
  1425                           ;psect for function _pinRB7_digin
  1426                           
  1427     0285                     l1368:	
  1428                           ;incstack = 0
  1429                           ; Regs used in _pinRB7_digin: []
  1430                           
  1431                           
  1432                           ;setup.c: 58:     TRISBbits.TRISB7 = 1;
  1433     0285  1683               	bsf	3,5	;RP0=1, select bank1
  1434     0286  1303               	bcf	3,6	;RP1=0, select bank1
  1435     0287  1786               	bsf	6,7	;volatile
  1436     0288                     l183:
  1437     0288  0008               	return
  1438     0289                     __end_of_pinRB7_digin:
  1439                           
  1440                           	psect	text9
  1441     0289                     __ptext9:	
  1442 ;; *************** function _pinRB6_digin *****************
  1443 ;; Defined at:
  1444 ;;		line 61 in file "setup.c"
  1445 ;; Parameters:    Size  Location     Type
  1446 ;;		None
  1447 ;; Auto vars:     Size  Location     Type
  1448 ;;		None
  1449 ;; Return value:  Size  Location     Type
  1450 ;;                  1    wreg      void 
  1451 ;; Registers used:
  1452 ;;		None
  1453 ;; Tracked objects:
  1454 ;;		On entry : 0/0
  1455 ;;		On exit  : 0/0
  1456 ;;		Unchanged: 0/0
  1457 ;; Data sizes:     COMMON   BANK0   BANK1   BANK3   BANK2
  1458 ;;      Params:         0       0       0       0       0
  1459 ;;      Locals:         0       0       0       0       0
  1460 ;;      Temps:          0       0       0       0       0
  1461 ;;      Totals:         0       0       0       0       0
  1462 ;;Total ram usage:        0 bytes
  1463 ;; Hardware stack levels used: 1
  1464 ;; Hardware stack levels required when called: 2
  1465 ;; This function calls:
  1466 ;;		Nothing
  1467 ;; This function is called by:
  1468 ;;		_main
  1469 ;; This function uses a non-reentrant model
  1470 ;;
  1471                           
  1472     0289                     _pinRB6_digin:	
  1473                           ;psect for function _pinRB6_digin
  1474                           
  1475     0289                     l1370:	
  1476                           ;incstack = 0
  1477                           ; Regs used in _pinRB6_digin: []
  1478                           
  1479                           
  1480                           ;setup.c: 62:     TRISBbits.TRISB6 = 1;
  1481     0289  1683               	bsf	3,5	;RP0=1, select bank1
  1482     028A  1303               	bcf	3,6	;RP1=0, select bank1
  1483     028B  1706               	bsf	6,6	;volatile
  1484     028C                     l186:
  1485     028C  0008               	return
  1486     028D                     __end_of_pinRB6_digin:
  1487                           
  1488                           	psect	text10
  1489     028D                     __ptext10:	
  1490 ;; *************** function _pinRB0_digin *****************
  1491 ;; Defined at:
  1492 ;;		line 65 in file "setup.c"
  1493 ;; Parameters:    Size  Location     Type
  1494 ;;		None
  1495 ;; Auto vars:     Size  Location     Type
  1496 ;;		None
  1497 ;; Return value:  Size  Location     Type
  1498 ;;                  1    wreg      void 
  1499 ;; Registers used:
  1500 ;;		None
  1501 ;; Tracked objects:
  1502 ;;		On entry : 0/0
  1503 ;;		On exit  : 0/0
  1504 ;;		Unchanged: 0/0
  1505 ;; Data sizes:     COMMON   BANK0   BANK1   BANK3   BANK2
  1506 ;;      Params:         0       0       0       0       0
  1507 ;;      Locals:         0       0       0       0       0
  1508 ;;      Temps:          0       0       0       0       0
  1509 ;;      Totals:         0       0       0       0       0
  1510 ;;Total ram usage:        0 bytes
  1511 ;; Hardware stack levels used: 1
  1512 ;; Hardware stack levels required when called: 2
  1513 ;; This function calls:
  1514 ;;		Nothing
  1515 ;; This function is called by:
  1516 ;;		_main
  1517 ;; This function uses a non-reentrant model
  1518 ;;
  1519                           
  1520     028D                     _pinRB0_digin:	
  1521                           ;psect for function _pinRB0_digin
  1522                           
  1523     028D                     l1372:	
  1524                           ;incstack = 0
  1525                           ; Regs used in _pinRB0_digin: []
  1526                           
  1527                           
  1528                           ;setup.c: 66:     TRISBbits.TRISB0 = 1;
  1529     028D  1683               	bsf	3,5	;RP0=1, select bank1
  1530     028E  1303               	bcf	3,6	;RP1=0, select bank1
  1531     028F  1406               	bsf	6,0	;volatile
  1532     0290                     l189:
  1533     0290  0008               	return
  1534     0291                     __end_of_pinRB0_digin:
  1535                           
  1536                           	psect	text11
  1537     02A7                     __ptext11:	
  1538 ;; *************** function _peripheral_interruptions_on *****************
  1539 ;; Defined at:
  1540 ;;		line 81 in file "setup.c"
  1541 ;; Parameters:    Size  Location     Type
  1542 ;;		None
  1543 ;; Auto vars:     Size  Location     Type
  1544 ;;		None
  1545 ;; Return value:  Size  Location     Type
  1546 ;;                  1    wreg      void 
  1547 ;; Registers used:
  1548 ;;		None
  1549 ;; Tracked objects:
  1550 ;;		On entry : 0/0
  1551 ;;		On exit  : 0/0
  1552 ;;		Unchanged: 0/0
  1553 ;; Data sizes:     COMMON   BANK0   BANK1   BANK3   BANK2
  1554 ;;      Params:         0       0       0       0       0
  1555 ;;      Locals:         0       0       0       0       0
  1556 ;;      Temps:          0       0       0       0       0
  1557 ;;      Totals:         0       0       0       0       0
  1558 ;;Total ram usage:        0 bytes
  1559 ;; Hardware stack levels used: 1
  1560 ;; Hardware stack levels required when called: 2
  1561 ;; This function calls:
  1562 ;;		Nothing
  1563 ;; This function is called by:
  1564 ;;		_main
  1565 ;; This function uses a non-reentrant model
  1566 ;;
  1567                           
  1568     02A7                     _peripheral_interruptions_on:	
  1569                           ;psect for function _peripheral_interruptions_on
  1570                           
  1571     02A7                     l1378:	
  1572                           ;incstack = 0
  1573                           ; Regs used in _peripheral_interruptions_on: []
  1574                           
  1575                           
  1576                           ;setup.c: 82:     INTCONbits.PEIE = 1;
  1577     02A7  170B               	bsf	11,6	;volatile
  1578     02A8                     l201:
  1579     02A8  0008               	return
  1580     02A9                     __end_of_peripheral_interruptions_on:
  1581                           
  1582                           	psect	text12
  1583     0245                     __ptext12:	
  1584 ;; *************** function _osc4MHz *****************
  1585 ;; Defined at:
  1586 ;;		line 14 in file "setup.c"
  1587 ;; Parameters:    Size  Location     Type
  1588 ;;		None
  1589 ;; Auto vars:     Size  Location     Type
  1590 ;;		None
  1591 ;; Return value:  Size  Location     Type
  1592 ;;                  1    wreg      void 
  1593 ;; Registers used:
  1594 ;;		None
  1595 ;; Tracked objects:
  1596 ;;		On entry : 0/0
  1597 ;;		On exit  : 0/0
  1598 ;;		Unchanged: 0/0
  1599 ;; Data sizes:     COMMON   BANK0   BANK1   BANK3   BANK2
  1600 ;;      Params:         0       0       0       0       0
  1601 ;;      Locals:         0       0       0       0       0
  1602 ;;      Temps:          0       0       0       0       0
  1603 ;;      Totals:         0       0       0       0       0
  1604 ;;Total ram usage:        0 bytes
  1605 ;; Hardware stack levels used: 1
  1606 ;; Hardware stack levels required when called: 2
  1607 ;; This function calls:
  1608 ;;		Nothing
  1609 ;; This function is called by:
  1610 ;;		_main
  1611 ;; This function uses a non-reentrant model
  1612 ;;
  1613                           
  1614     0245                     _osc4MHz:	
  1615                           ;psect for function _osc4MHz
  1616                           
  1617     0245                     l1354:	
  1618                           ;incstack = 0
  1619                           ; Regs used in _osc4MHz: []
  1620                           
  1621                           
  1622                           ;setup.c: 15:     OSCCONbits.IRCF2 = 1;
  1623     0245  1683               	bsf	3,5	;RP0=1, select bank1
  1624     0246  1303               	bcf	3,6	;RP1=0, select bank1
  1625     0247  170F               	bsf	15,6	;volatile
  1626                           
  1627                           ;setup.c: 16:     OSCCONbits.IRCF1 = 1;
  1628     0248  168F               	bsf	15,5	;volatile
  1629                           
  1630                           ;setup.c: 17:     OSCCONbits.IRCF0 = 0;
  1631     0249  120F               	bcf	15,4	;volatile
  1632                           
  1633                           ;setup.c: 18:     OSCCONbits.SCS = 1;
  1634     024A  140F               	bsf	15,0	;volatile
  1635     024B                     l156:
  1636     024B  0008               	return
  1637     024C                     __end_of_osc4MHz:
  1638                           
  1639                           	psect	text13
  1640     0291                     __ptext13:	
  1641 ;; *************** function _interrupt_onchange_RB7 *****************
  1642 ;; Defined at:
  1643 ;;		line 116 in file "setup.c"
  1644 ;; Parameters:    Size  Location     Type
  1645 ;;		None
  1646 ;; Auto vars:     Size  Location     Type
  1647 ;;		None
  1648 ;; Return value:  Size  Location     Type
  1649 ;;                  1    wreg      void 
  1650 ;; Registers used:
  1651 ;;		None
  1652 ;; Tracked objects:
  1653 ;;		On entry : 0/0
  1654 ;;		On exit  : 0/0
  1655 ;;		Unchanged: 0/0
  1656 ;; Data sizes:     COMMON   BANK0   BANK1   BANK3   BANK2
  1657 ;;      Params:         0       0       0       0       0
  1658 ;;      Locals:         0       0       0       0       0
  1659 ;;      Temps:          0       0       0       0       0
  1660 ;;      Totals:         0       0       0       0       0
  1661 ;;Total ram usage:        0 bytes
  1662 ;; Hardware stack levels used: 1
  1663 ;; Hardware stack levels required when called: 2
  1664 ;; This function calls:
  1665 ;;		Nothing
  1666 ;; This function is called by:
  1667 ;;		_main
  1668 ;; This function uses a non-reentrant model
  1669 ;;
  1670                           
  1671     0291                     _interrupt_onchange_RB7:	
  1672                           ;psect for function _interrupt_onchange_RB7
  1673                           
  1674     0291                     l1394:	
  1675                           ;incstack = 0
  1676                           ; Regs used in _interrupt_onchange_RB7: []
  1677                           
  1678                           
  1679                           ;setup.c: 117:     IOCBbits.IOCB7 = 1;
  1680     0291  1683               	bsf	3,5	;RP0=1, select bank1
  1681     0292  1303               	bcf	3,6	;RP1=0, select bank1
  1682     0293  1796               	bsf	22,7	;volatile
  1683     0294                     l225:
  1684     0294  0008               	return
  1685     0295                     __end_of_interrupt_onchange_RB7:
  1686                           
  1687                           	psect	text14
  1688     0295                     __ptext14:	
  1689 ;; *************** function _interrupt_onchange_RB6 *****************
  1690 ;; Defined at:
  1691 ;;		line 120 in file "setup.c"
  1692 ;; Parameters:    Size  Location     Type
  1693 ;;		None
  1694 ;; Auto vars:     Size  Location     Type
  1695 ;;		None
  1696 ;; Return value:  Size  Location     Type
  1697 ;;                  1    wreg      void 
  1698 ;; Registers used:
  1699 ;;		None
  1700 ;; Tracked objects:
  1701 ;;		On entry : 0/0
  1702 ;;		On exit  : 0/0
  1703 ;;		Unchanged: 0/0
  1704 ;; Data sizes:     COMMON   BANK0   BANK1   BANK3   BANK2
  1705 ;;      Params:         0       0       0       0       0
  1706 ;;      Locals:         0       0       0       0       0
  1707 ;;      Temps:          0       0       0       0       0
  1708 ;;      Totals:         0       0       0       0       0
  1709 ;;Total ram usage:        0 bytes
  1710 ;; Hardware stack levels used: 1
  1711 ;; Hardware stack levels required when called: 2
  1712 ;; This function calls:
  1713 ;;		Nothing
  1714 ;; This function is called by:
  1715 ;;		_main
  1716 ;; This function uses a non-reentrant model
  1717 ;;
  1718                           
  1719     0295                     _interrupt_onchange_RB6:	
  1720                           ;psect for function _interrupt_onchange_RB6
  1721                           
  1722     0295                     l1396:	
  1723                           ;incstack = 0
  1724                           ; Regs used in _interrupt_onchange_RB6: []
  1725                           
  1726                           
  1727                           ;setup.c: 121:     IOCBbits.IOCB6 = 1;
  1728     0295  1683               	bsf	3,5	;RP0=1, select bank1
  1729     0296  1303               	bcf	3,6	;RP1=0, select bank1
  1730     0297  1716               	bsf	22,6	;volatile
  1731     0298                     l228:
  1732     0298  0008               	return
  1733     0299                     __end_of_interrupt_onchange_RB6:
  1734                           
  1735                           	psect	text15
  1736     023D                     __ptext15:	
  1737 ;; *************** function _initiateports *****************
  1738 ;; Defined at:
  1739 ;;		line 21 in file "setup.c"
  1740 ;; Parameters:    Size  Location     Type
  1741 ;;		None
  1742 ;; Auto vars:     Size  Location     Type
  1743 ;;		None
  1744 ;; Return value:  Size  Location     Type
  1745 ;;                  1    wreg      void 
  1746 ;; Registers used:
  1747 ;;		status,2
  1748 ;; Tracked objects:
  1749 ;;		On entry : 0/0
  1750 ;;		On exit  : 0/0
  1751 ;;		Unchanged: 0/0
  1752 ;; Data sizes:     COMMON   BANK0   BANK1   BANK3   BANK2
  1753 ;;      Params:         0       0       0       0       0
  1754 ;;      Locals:         0       0       0       0       0
  1755 ;;      Temps:          0       0       0       0       0
  1756 ;;      Totals:         0       0       0       0       0
  1757 ;;Total ram usage:        0 bytes
  1758 ;; Hardware stack levels used: 1
  1759 ;; Hardware stack levels required when called: 2
  1760 ;; This function calls:
  1761 ;;		Nothing
  1762 ;; This function is called by:
  1763 ;;		_main
  1764 ;; This function uses a non-reentrant model
  1765 ;;
  1766                           
  1767     023D                     _initiateports:	
  1768                           ;psect for function _initiateports
  1769                           
  1770     023D                     l1356:	
  1771                           ;incstack = 0
  1772                           ; Regs used in _initiateports: [status,2]
  1773                           
  1774                           
  1775                           ;setup.c: 22:     PORTA = 0;
  1776     023D  1283               	bcf	3,5	;RP0=0, select bank0
  1777     023E  1303               	bcf	3,6	;RP1=0, select bank0
  1778     023F  0185               	clrf	5	;volatile
  1779                           
  1780                           ;setup.c: 23:     PORTB = 0;
  1781     0240  0186               	clrf	6	;volatile
  1782                           
  1783                           ;setup.c: 24:     PORTC = 0;
  1784     0241  0187               	clrf	7	;volatile
  1785                           
  1786                           ;setup.c: 25:     PORTD = 0;
  1787     0242  0188               	clrf	8	;volatile
  1788                           
  1789                           ;setup.c: 26:     PORTE = 0;
  1790     0243  0189               	clrf	9	;volatile
  1791     0244                     l159:
  1792     0244  0008               	return
  1793     0245                     __end_of_initiateports:
  1794                           
  1795                           	psect	text16
  1796     02A9                     __ptext16:	
  1797 ;; *************** function _global_interruptions_on *****************
  1798 ;; Defined at:
  1799 ;;		line 73 in file "setup.c"
  1800 ;; Parameters:    Size  Location     Type
  1801 ;;		None
  1802 ;; Auto vars:     Size  Location     Type
  1803 ;;		None
  1804 ;; Return value:  Size  Location     Type
  1805 ;;                  1    wreg      void 
  1806 ;; Registers used:
  1807 ;;		None
  1808 ;; Tracked objects:
  1809 ;;		On entry : 0/0
  1810 ;;		On exit  : 0/0
  1811 ;;		Unchanged: 0/0
  1812 ;; Data sizes:     COMMON   BANK0   BANK1   BANK3   BANK2
  1813 ;;      Params:         0       0       0       0       0
  1814 ;;      Locals:         0       0       0       0       0
  1815 ;;      Temps:          0       0       0       0       0
  1816 ;;      Totals:         0       0       0       0       0
  1817 ;;Total ram usage:        0 bytes
  1818 ;; Hardware stack levels used: 1
  1819 ;; Hardware stack levels required when called: 2
  1820 ;; This function calls:
  1821 ;;		Nothing
  1822 ;; This function is called by:
  1823 ;;		_main
  1824 ;; This function uses a non-reentrant model
  1825 ;;
  1826                           
  1827     02A9                     _global_interruptions_on:	
  1828                           ;psect for function _global_interruptions_on
  1829                           
  1830     02A9                     l1376:	
  1831                           ;incstack = 0
  1832                           ; Regs used in _global_interruptions_on: []
  1833                           
  1834                           
  1835                           ;setup.c: 74:     INTCONbits.GIE = 1;
  1836     02A9  178B               	bsf	11,7	;volatile
  1837     02AA                     l195:
  1838     02AA  0008               	return
  1839     02AB                     __end_of_global_interruptions_on:
  1840                           
  1841                           	psect	text17
  1842     01BB                     __ptext17:	
  1843 ;; *************** function _display_hex *****************
  1844 ;; Defined at:
  1845 ;;		line 27 in file "displays.c"
  1846 ;; Parameters:    Size  Location     Type
  1847 ;;  value           2    9[BANK0 ] int 
  1848 ;; Auto vars:     Size  Location     Type
  1849 ;;		None
  1850 ;; Return value:  Size  Location     Type
  1851 ;;                  1    wreg      void 
  1852 ;; Registers used:
  1853 ;;		wreg, status,2, status,0, pclath, cstack
  1854 ;; Tracked objects:
  1855 ;;		On entry : 0/0
  1856 ;;		On exit  : 0/0
  1857 ;;		Unchanged: 0/0
  1858 ;; Data sizes:     COMMON   BANK0   BANK1   BANK3   BANK2
  1859 ;;      Params:         0       2       0       0       0
  1860 ;;      Locals:         0       0       0       0       0
  1861 ;;      Temps:          0       0       0       0       0
  1862 ;;      Totals:         0       2       0       0       0
  1863 ;;Total ram usage:        2 bytes
  1864 ;; Hardware stack levels used: 1
  1865 ;; Hardware stack levels required when called: 3
  1866 ;; This function calls:
  1867 ;;		___awdiv
  1868 ;; This function is called by:
  1869 ;;		_main
  1870 ;; This function uses a non-reentrant model
  1871 ;;
  1872                           
  1873     01BB                     _display_hex:	
  1874                           ;psect for function _display_hex
  1875                           
  1876     01BB                     l1406:	
  1877                           ;incstack = 0
  1878                           ; Regs used in _display_hex: [wreg+status,2+status,0+pclath+cstack]
  1879                           
  1880                           
  1881                           ;displays.c: 28:     if (ADRESH >= PORTD){
  1882     01BB  1283               	bcf	3,5	;RP0=0, select bank0
  1883     01BC  1303               	bcf	3,6	;RP1=0, select bank0
  1884     01BD  0808               	movf	8,w	;volatile
  1885     01BE  021E               	subwf	30,w	;volatile
  1886     01BF  1C03               	skipc
  1887     01C0  29C2               	goto	u491
  1888     01C1  29C3               	goto	u490
  1889     01C2                     u491:
  1890     01C2  29C5               	goto	l282
  1891     01C3                     u490:
  1892     01C3                     l1408:
  1893                           
  1894                           ;displays.c: 29:         PORTCbits.RC2 = 1;
  1895     01C3  1507               	bsf	7,2	;volatile
  1896                           
  1897                           ;displays.c: 30:     }
  1898     01C4  29C6               	goto	l1410
  1899     01C5                     l282:	
  1900                           ;displays.c: 31:     else {
  1901                           
  1902                           
  1903                           ;displays.c: 32:         PORTCbits.RC2 = 0; }
  1904     01C5  1107               	bcf	7,2	;volatile
  1905     01C6                     l1410:
  1906                           
  1907                           ;displays.c: 34:     H1 = (value%16);
  1908     01C6  300F               	movlw	15
  1909     01C7  0539               	andwf	display_hex@value,w
  1910     01C8  00C3               	movwf	_H1
  1911     01C9  3000               	movlw	0
  1912     01CA  053A               	andwf	display_hex@value+1,w
  1913     01CB  00C4               	movwf	_H1+1
  1914     01CC                     l1412:
  1915                           
  1916                           ;displays.c: 35:     H2 = (value/16);
  1917     01CC  3010               	movlw	16
  1918     01CD  00B0               	movwf	___awdiv@divisor
  1919     01CE  3000               	movlw	0
  1920     01CF  00B1               	movwf	___awdiv@divisor+1
  1921     01D0  083A               	movf	display_hex@value+1,w
  1922     01D1  00B3               	movwf	___awdiv@dividend+1
  1923     01D2  0839               	movf	display_hex@value,w
  1924     01D3  00B2               	movwf	___awdiv@dividend
  1925     01D4  120A  118A  20CE  120A  118A  	fcall	___awdiv
  1926     01D9  1283               	bcf	3,5	;RP0=0, select bank0
  1927     01DA  1303               	bcf	3,6	;RP1=0, select bank0
  1928     01DB  0831               	movf	?___awdiv+1,w
  1929     01DC  00C2               	movwf	_H2+1
  1930     01DD  0830               	movf	?___awdiv,w
  1931     01DE  00C1               	movwf	_H2
  1932     01DF                     l284:
  1933     01DF  0008               	return
  1934     01E0                     __end_of_display_hex:
  1935                           
  1936                           	psect	text18
  1937     00CE                     __ptext18:	
  1938 ;; *************** function ___awdiv *****************
  1939 ;; Defined at:
  1940 ;;		line 5 in file "E:\Program Files\Microchip\xc8\v2.40\pic\sources\c90\common\awdiv.c"
  1941 ;; Parameters:    Size  Location     Type
  1942 ;;  divisor         2    0[BANK0 ] int 
  1943 ;;  dividend        2    2[BANK0 ] int 
  1944 ;; Auto vars:     Size  Location     Type
  1945 ;;  quotient        2    7[BANK0 ] int 
  1946 ;;  sign            1    6[BANK0 ] unsigned char 
  1947 ;;  counter         1    5[BANK0 ] unsigned char 
  1948 ;; Return value:  Size  Location     Type
  1949 ;;                  2    0[BANK0 ] int 
  1950 ;; Registers used:
  1951 ;;		wreg, status,2, status,0
  1952 ;; Tracked objects:
  1953 ;;		On entry : 0/0
  1954 ;;		On exit  : 0/0
  1955 ;;		Unchanged: 0/0
  1956 ;; Data sizes:     COMMON   BANK0   BANK1   BANK3   BANK2
  1957 ;;      Params:         0       4       0       0       0
  1958 ;;      Locals:         0       4       0       0       0
  1959 ;;      Temps:          0       1       0       0       0
  1960 ;;      Totals:         0       9       0       0       0
  1961 ;;Total ram usage:        9 bytes
  1962 ;; Hardware stack levels used: 1
  1963 ;; Hardware stack levels required when called: 2
  1964 ;; This function calls:
  1965 ;;		Nothing
  1966 ;; This function is called by:
  1967 ;;		_display_hex
  1968 ;; This function uses a non-reentrant model
  1969 ;;
  1970                           
  1971     00CE                     ___awdiv:	
  1972                           ;psect for function ___awdiv
  1973                           
  1974     00CE                     l1118:	
  1975                           ;incstack = 0
  1976                           ; Regs used in ___awdiv: [wreg+status,2+status,0]
  1977                           
  1978     00CE  1283               	bcf	3,5	;RP0=0, select bank0
  1979     00CF  1303               	bcf	3,6	;RP1=0, select bank0
  1980     00D0  01B6               	clrf	___awdiv@sign
  1981     00D1                     l1120:
  1982     00D1  1FB1               	btfss	___awdiv@divisor+1,7
  1983     00D2  28D4               	goto	u251
  1984     00D3  28D5               	goto	u250
  1985     00D4                     u251:
  1986     00D4  28DC               	goto	l1126
  1987     00D5                     u250:
  1988     00D5                     l1122:
  1989     00D5  09B0               	comf	___awdiv@divisor,f
  1990     00D6  09B1               	comf	___awdiv@divisor+1,f
  1991     00D7  0AB0               	incf	___awdiv@divisor,f
  1992     00D8  1903               	skipnz
  1993     00D9  0AB1               	incf	___awdiv@divisor+1,f
  1994     00DA                     l1124:
  1995     00DA  01B6               	clrf	___awdiv@sign
  1996     00DB  0AB6               	incf	___awdiv@sign,f
  1997     00DC                     l1126:
  1998     00DC  1FB3               	btfss	___awdiv@dividend+1,7
  1999     00DD  28DF               	goto	u261
  2000     00DE  28E0               	goto	u260
  2001     00DF                     u261:
  2002     00DF  28E9               	goto	l1132
  2003     00E0                     u260:
  2004     00E0                     l1128:
  2005     00E0  09B2               	comf	___awdiv@dividend,f
  2006     00E1  09B3               	comf	___awdiv@dividend+1,f
  2007     00E2  0AB2               	incf	___awdiv@dividend,f
  2008     00E3  1903               	skipnz
  2009     00E4  0AB3               	incf	___awdiv@dividend+1,f
  2010     00E5                     l1130:
  2011     00E5  3001               	movlw	1
  2012     00E6  00B4               	movwf	??___awdiv
  2013     00E7  0834               	movf	??___awdiv,w
  2014     00E8  06B6               	xorwf	___awdiv@sign,f
  2015     00E9                     l1132:
  2016     00E9  01B7               	clrf	___awdiv@quotient
  2017     00EA  01B8               	clrf	___awdiv@quotient+1
  2018     00EB                     l1134:
  2019     00EB  0830               	movf	___awdiv@divisor,w
  2020     00EC  0431               	iorwf	___awdiv@divisor+1,w
  2021     00ED  1903               	btfsc	3,2
  2022     00EE  28F0               	goto	u271
  2023     00EF  28F1               	goto	u270
  2024     00F0                     u271:
  2025     00F0  2928               	goto	l1154
  2026     00F1                     u270:
  2027     00F1                     l1136:
  2028     00F1  01B5               	clrf	___awdiv@counter
  2029     00F2  0AB5               	incf	___awdiv@counter,f
  2030     00F3  28FF               	goto	l1142
  2031     00F4                     l1138:
  2032     00F4  3001               	movlw	1
  2033     00F5                     u285:
  2034     00F5  1003               	clrc
  2035     00F6  0DB0               	rlf	___awdiv@divisor,f
  2036     00F7  0DB1               	rlf	___awdiv@divisor+1,f
  2037     00F8  3EFF               	addlw	-1
  2038     00F9  1D03               	skipz
  2039     00FA  28F5               	goto	u285
  2040     00FB                     l1140:
  2041     00FB  3001               	movlw	1
  2042     00FC  00B4               	movwf	??___awdiv
  2043     00FD  0834               	movf	??___awdiv,w
  2044     00FE  07B5               	addwf	___awdiv@counter,f
  2045     00FF                     l1142:
  2046     00FF  1FB1               	btfss	___awdiv@divisor+1,7
  2047     0100  2902               	goto	u291
  2048     0101  2903               	goto	u290
  2049     0102                     u291:
  2050     0102  28F4               	goto	l1138
  2051     0103                     u290:
  2052     0103                     l1144:
  2053     0103  3001               	movlw	1
  2054     0104                     u305:
  2055     0104  1003               	clrc
  2056     0105  0DB7               	rlf	___awdiv@quotient,f
  2057     0106  0DB8               	rlf	___awdiv@quotient+1,f
  2058     0107  3EFF               	addlw	-1
  2059     0108  1D03               	skipz
  2060     0109  2904               	goto	u305
  2061     010A  0831               	movf	___awdiv@divisor+1,w
  2062     010B  0233               	subwf	___awdiv@dividend+1,w
  2063     010C  1D03               	skipz
  2064     010D  2910               	goto	u315
  2065     010E  0830               	movf	___awdiv@divisor,w
  2066     010F  0232               	subwf	___awdiv@dividend,w
  2067     0110                     u315:
  2068     0110  1C03               	skipc
  2069     0111  2913               	goto	u311
  2070     0112  2914               	goto	u310
  2071     0113                     u311:
  2072     0113  291B               	goto	l1150
  2073     0114                     u310:
  2074     0114                     l1146:
  2075     0114  0830               	movf	___awdiv@divisor,w
  2076     0115  02B2               	subwf	___awdiv@dividend,f
  2077     0116  0831               	movf	___awdiv@divisor+1,w
  2078     0117  1C03               	skipc
  2079     0118  03B3               	decf	___awdiv@dividend+1,f
  2080     0119  02B3               	subwf	___awdiv@dividend+1,f
  2081     011A                     l1148:
  2082     011A  1437               	bsf	___awdiv@quotient,0
  2083     011B                     l1150:
  2084     011B  3001               	movlw	1
  2085     011C                     u325:
  2086     011C  1003               	clrc
  2087     011D  0CB1               	rrf	___awdiv@divisor+1,f
  2088     011E  0CB0               	rrf	___awdiv@divisor,f
  2089     011F  3EFF               	addlw	-1
  2090     0120  1D03               	skipz
  2091     0121  291C               	goto	u325
  2092     0122                     l1152:
  2093     0122  3001               	movlw	1
  2094     0123  02B5               	subwf	___awdiv@counter,f
  2095     0124  1D03               	btfss	3,2
  2096     0125  2927               	goto	u331
  2097     0126  2928               	goto	u330
  2098     0127                     u331:
  2099     0127  2903               	goto	l1144
  2100     0128                     u330:
  2101     0128                     l1154:
  2102     0128  0836               	movf	___awdiv@sign,w
  2103     0129  1903               	btfsc	3,2
  2104     012A  292C               	goto	u341
  2105     012B  292D               	goto	u340
  2106     012C                     u341:
  2107     012C  2932               	goto	l1158
  2108     012D                     u340:
  2109     012D                     l1156:
  2110     012D  09B7               	comf	___awdiv@quotient,f
  2111     012E  09B8               	comf	___awdiv@quotient+1,f
  2112     012F  0AB7               	incf	___awdiv@quotient,f
  2113     0130  1903               	skipnz
  2114     0131  0AB8               	incf	___awdiv@quotient+1,f
  2115     0132                     l1158:
  2116     0132  0838               	movf	___awdiv@quotient+1,w
  2117     0133  00B1               	movwf	?___awdiv+1
  2118     0134  0837               	movf	___awdiv@quotient,w
  2119     0135  00B0               	movwf	?___awdiv
  2120     0136                     l523:
  2121     0136  0008               	return
  2122     0137                     __end_of___awdiv:
  2123                           
  2124                           	psect	text19
  2125     0299                     __ptext19:	
  2126 ;; *************** function _digital_low *****************
  2127 ;; Defined at:
  2128 ;;		line 29 in file "setup.c"
  2129 ;; Parameters:    Size  Location     Type
  2130 ;;		None
  2131 ;; Auto vars:     Size  Location     Type
  2132 ;;		None
  2133 ;; Return value:  Size  Location     Type
  2134 ;;                  1    wreg      void 
  2135 ;; Registers used:
  2136 ;;		status,2
  2137 ;; Tracked objects:
  2138 ;;		On entry : 0/0
  2139 ;;		On exit  : 0/0
  2140 ;;		Unchanged: 0/0
  2141 ;; Data sizes:     COMMON   BANK0   BANK1   BANK3   BANK2
  2142 ;;      Params:         0       0       0       0       0
  2143 ;;      Locals:         0       0       0       0       0
  2144 ;;      Temps:          0       0       0       0       0
  2145 ;;      Totals:         0       0       0       0       0
  2146 ;;Total ram usage:        0 bytes
  2147 ;; Hardware stack levels used: 1
  2148 ;; Hardware stack levels required when called: 2
  2149 ;; This function calls:
  2150 ;;		Nothing
  2151 ;; This function is called by:
  2152 ;;		_main
  2153 ;; This function uses a non-reentrant model
  2154 ;;
  2155                           
  2156     0299                     _digital_low:	
  2157                           ;psect for function _digital_low
  2158                           
  2159     0299                     l1358:	
  2160                           ;incstack = 0
  2161                           ; Regs used in _digital_low: [status,2]
  2162                           
  2163                           
  2164                           ;setup.c: 30:     ANSEL = 0;
  2165     0299  1683               	bsf	3,5	;RP0=1, select bank3
  2166     029A  1703               	bsf	3,6	;RP1=1, select bank3
  2167     029B  0188               	clrf	8	;volatile
  2168     029C                     l162:
  2169     029C  0008               	return
  2170     029D                     __end_of_digital_low:
  2171                           
  2172                           	psect	text20
  2173     0259                     __ptext20:	
  2174 ;; *************** function _analog_12 *****************
  2175 ;; Defined at:
  2176 ;;		line 37 in file "setup.c"
  2177 ;; Parameters:    Size  Location     Type
  2178 ;;		None
  2179 ;; Auto vars:     Size  Location     Type
  2180 ;;		None
  2181 ;; Return value:  Size  Location     Type
  2182 ;;                  1    wreg      void 
  2183 ;; Registers used:
  2184 ;;		wreg
  2185 ;; Tracked objects:
  2186 ;;		On entry : 0/0
  2187 ;;		On exit  : 0/0
  2188 ;;		Unchanged: 0/0
  2189 ;; Data sizes:     COMMON   BANK0   BANK1   BANK3   BANK2
  2190 ;;      Params:         0       0       0       0       0
  2191 ;;      Locals:         0       0       0       0       0
  2192 ;;      Temps:          0       0       0       0       0
  2193 ;;      Totals:         0       0       0       0       0
  2194 ;;Total ram usage:        0 bytes
  2195 ;; Hardware stack levels used: 1
  2196 ;; Hardware stack levels required when called: 2
  2197 ;; This function calls:
  2198 ;;		Nothing
  2199 ;; This function is called by:
  2200 ;;		_main
  2201 ;; This function uses a non-reentrant model
  2202 ;;
  2203                           
  2204     0259                     _analog_12:	
  2205                           ;psect for function _analog_12
  2206                           
  2207     0259                     l1360:	
  2208                           ;incstack = 0
  2209                           ; Regs used in _analog_12: [wreg]
  2210                           
  2211                           
  2212                           ;setup.c: 38:     ANSELH = 0b00010000;
  2213     0259  3010               	movlw	16
  2214     025A  1683               	bsf	3,5	;RP0=1, select bank3
  2215     025B  1703               	bsf	3,6	;RP1=1, select bank3
  2216     025C  0089               	movwf	9	;volatile
  2217     025D                     l168:
  2218     025D  0008               	return
  2219     025E                     __end_of_analog_12:
  2220                           
  2221                           	psect	text21
  2222     025E                     __ptext21:	
  2223 ;; *************** function _Timer0_source *****************
  2224 ;; Defined at:
  2225 ;;		line 97 in file "setup.c"
  2226 ;; Parameters:    Size  Location     Type
  2227 ;;		None
  2228 ;; Auto vars:     Size  Location     Type
  2229 ;;		None
  2230 ;; Return value:  Size  Location     Type
  2231 ;;                  1    wreg      void 
  2232 ;; Registers used:
  2233 ;;		None
  2234 ;; Tracked objects:
  2235 ;;		On entry : 0/0
  2236 ;;		On exit  : 0/0
  2237 ;;		Unchanged: 0/0
  2238 ;; Data sizes:     COMMON   BANK0   BANK1   BANK3   BANK2
  2239 ;;      Params:         0       0       0       0       0
  2240 ;;      Locals:         0       0       0       0       0
  2241 ;;      Temps:          0       0       0       0       0
  2242 ;;      Totals:         0       0       0       0       0
  2243 ;;Total ram usage:        0 bytes
  2244 ;; Hardware stack levels used: 1
  2245 ;; Hardware stack levels required when called: 2
  2246 ;; This function calls:
  2247 ;;		Nothing
  2248 ;; This function is called by:
  2249 ;;		_main
  2250 ;; This function uses a non-reentrant model
  2251 ;;
  2252                           
  2253     025E                     _Timer0_source:	
  2254                           ;psect for function _Timer0_source
  2255                           
  2256     025E                     l1382:	
  2257                           ;incstack = 0
  2258                           ; Regs used in _Timer0_source: []
  2259                           
  2260                           
  2261                           ;setup.c: 98:     OPTION_REGbits.T0CS = 0;
  2262     025E  1683               	bsf	3,5	;RP0=1, select bank1
  2263     025F  1303               	bcf	3,6	;RP1=0, select bank1
  2264     0260  1281               	bcf	1,5	;volatile
  2265                           
  2266                           ;setup.c: 99:     OPTION_REGbits.PSA = 0;
  2267     0261  1181               	bcf	1,3	;volatile
  2268     0262                     l213:
  2269     0262  0008               	return
  2270     0263                     __end_of_Timer0_source:
  2271                           
  2272                           	psect	text22
  2273     0253                     __ptext22:	
  2274 ;; *************** function _Timer0_prescaler256 *****************
  2275 ;; Defined at:
  2276 ;;		line 102 in file "setup.c"
  2277 ;; Parameters:    Size  Location     Type
  2278 ;;		None
  2279 ;; Auto vars:     Size  Location     Type
  2280 ;;		None
  2281 ;; Return value:  Size  Location     Type
  2282 ;;                  1    wreg      void 
  2283 ;; Registers used:
  2284 ;;		None
  2285 ;; Tracked objects:
  2286 ;;		On entry : 0/0
  2287 ;;		On exit  : 0/0
  2288 ;;		Unchanged: 0/0
  2289 ;; Data sizes:     COMMON   BANK0   BANK1   BANK3   BANK2
  2290 ;;      Params:         0       0       0       0       0
  2291 ;;      Locals:         0       0       0       0       0
  2292 ;;      Temps:          0       0       0       0       0
  2293 ;;      Totals:         0       0       0       0       0
  2294 ;;Total ram usage:        0 bytes
  2295 ;; Hardware stack levels used: 1
  2296 ;; Hardware stack levels required when called: 2
  2297 ;; This function calls:
  2298 ;;		Nothing
  2299 ;; This function is called by:
  2300 ;;		_main
  2301 ;; This function uses a non-reentrant model
  2302 ;;
  2303                           
  2304     0253                     _Timer0_prescaler256:	
  2305                           ;psect for function _Timer0_prescaler256
  2306                           
  2307     0253                     l1384:	
  2308                           ;incstack = 0
  2309                           ; Regs used in _Timer0_prescaler256: []
  2310                           
  2311                           
  2312                           ;setup.c: 103:     OPTION_REGbits.PS2 = 1;
  2313     0253  1683               	bsf	3,5	;RP0=1, select bank1
  2314     0254  1303               	bcf	3,6	;RP1=0, select bank1
  2315     0255  1501               	bsf	1,2	;volatile
  2316                           
  2317                           ;setup.c: 104:     OPTION_REGbits.PS1 = 1;
  2318     0256  1481               	bsf	1,1	;volatile
  2319                           
  2320                           ;setup.c: 105:     OPTION_REGbits.PS0 = 1;
  2321     0257  1401               	bsf	1,0	;volatile
  2322     0258                     l216:
  2323     0258  0008               	return
  2324     0259                     __end_of_Timer0_prescaler256:
  2325                           
  2326                           	psect	text23
  2327     02AB                     __ptext23:	
  2328 ;; *************** function _Timer0_interruption_on *****************
  2329 ;; Defined at:
  2330 ;;		line 93 in file "setup.c"
  2331 ;; Parameters:    Size  Location     Type
  2332 ;;		None
  2333 ;; Auto vars:     Size  Location     Type
  2334 ;;		None
  2335 ;; Return value:  Size  Location     Type
  2336 ;;                  1    wreg      void 
  2337 ;; Registers used:
  2338 ;;		None
  2339 ;; Tracked objects:
  2340 ;;		On entry : 0/0
  2341 ;;		On exit  : 0/0
  2342 ;;		Unchanged: 0/0
  2343 ;; Data sizes:     COMMON   BANK0   BANK1   BANK3   BANK2
  2344 ;;      Params:         0       0       0       0       0
  2345 ;;      Locals:         0       0       0       0       0
  2346 ;;      Temps:          0       0       0       0       0
  2347 ;;      Totals:         0       0       0       0       0
  2348 ;;Total ram usage:        0 bytes
  2349 ;; Hardware stack levels used: 1
  2350 ;; Hardware stack levels required when called: 2
  2351 ;; This function calls:
  2352 ;;		Nothing
  2353 ;; This function is called by:
  2354 ;;		_main
  2355 ;; This function uses a non-reentrant model
  2356 ;;
  2357                           
  2358     02AB                     _Timer0_interruption_on:	
  2359                           ;psect for function _Timer0_interruption_on
  2360                           
  2361     02AB                     l1380:	
  2362                           ;incstack = 0
  2363                           ; Regs used in _Timer0_interruption_on: []
  2364                           
  2365                           
  2366                           ;setup.c: 94:     INTCONbits.T0IE = 1;
  2367     02AB  168B               	bsf	11,5	;volatile
  2368     02AC                     l210:
  2369     02AC  0008               	return
  2370     02AD                     __end_of_Timer0_interruption_on:
  2371                           
  2372                           	psect	text24
  2373     0263                     __ptext24:	
  2374 ;; *************** function _ADC_reference_default *****************
  2375 ;; Defined at:
  2376 ;;		line 19 in file "ADC_setup.c"
  2377 ;; Parameters:    Size  Location     Type
  2378 ;;		None
  2379 ;; Auto vars:     Size  Location     Type
  2380 ;;		None
  2381 ;; Return value:  Size  Location     Type
  2382 ;;                  1    wreg      void 
  2383 ;; Registers used:
  2384 ;;		None
  2385 ;; Tracked objects:
  2386 ;;		On entry : 0/0
  2387 ;;		On exit  : 0/0
  2388 ;;		Unchanged: 0/0
  2389 ;; Data sizes:     COMMON   BANK0   BANK1   BANK3   BANK2
  2390 ;;      Params:         0       0       0       0       0
  2391 ;;      Locals:         0       0       0       0       0
  2392 ;;      Temps:          0       0       0       0       0
  2393 ;;      Totals:         0       0       0       0       0
  2394 ;;Total ram usage:        0 bytes
  2395 ;; Hardware stack levels used: 1
  2396 ;; Hardware stack levels required when called: 2
  2397 ;; This function calls:
  2398 ;;		Nothing
  2399 ;; This function is called by:
  2400 ;;		_main
  2401 ;; This function uses a non-reentrant model
  2402 ;;
  2403                           
  2404     0263                     _ADC_reference_default:	
  2405                           ;psect for function _ADC_reference_default
  2406                           
  2407     0263                     l1400:	
  2408                           ;incstack = 0
  2409                           ; Regs used in _ADC_reference_default: []
  2410                           
  2411                           
  2412                           ;ADC_setup.c: 20:     ADCON1bits.VCFG1 = 0;
  2413     0263  1683               	bsf	3,5	;RP0=1, select bank1
  2414     0264  1303               	bcf	3,6	;RP1=0, select bank1
  2415     0265  129F               	bcf	31,5	;volatile
  2416                           
  2417                           ;ADC_setup.c: 21:     ADCON1bits.VCFG0 = 0;
  2418     0266  121F               	bcf	31,4	;volatile
  2419     0267                     l244:
  2420     0267  0008               	return
  2421     0268                     __end_of_ADC_reference_default:
  2422                           
  2423                           	psect	text25
  2424     0232                     __ptext25:	
  2425 ;; *************** function _ADC_on *****************
  2426 ;; Defined at:
  2427 ;;		line 35 in file "ADC_setup.c"
  2428 ;; Parameters:    Size  Location     Type
  2429 ;;		None
  2430 ;; Auto vars:     Size  Location     Type
  2431 ;;		None
  2432 ;; Return value:  Size  Location     Type
  2433 ;;                  1    wreg      void 
  2434 ;; Registers used:
  2435 ;;		wreg
  2436 ;; Tracked objects:
  2437 ;;		On entry : 0/0
  2438 ;;		On exit  : 0/0
  2439 ;;		Unchanged: 0/0
  2440 ;; Data sizes:     COMMON   BANK0   BANK1   BANK3   BANK2
  2441 ;;      Params:         0       0       0       0       0
  2442 ;;      Locals:         0       0       0       0       0
  2443 ;;      Temps:          0       1       0       0       0
  2444 ;;      Totals:         0       1       0       0       0
  2445 ;;Total ram usage:        1 bytes
  2446 ;; Hardware stack levels used: 1
  2447 ;; Hardware stack levels required when called: 2
  2448 ;; This function calls:
  2449 ;;		Nothing
  2450 ;; This function is called by:
  2451 ;;		_main
  2452 ;; This function uses a non-reentrant model
  2453 ;;
  2454                           
  2455     0232                     _ADC_on:	
  2456                           ;psect for function _ADC_on
  2457                           
  2458     0232                     l1214:	
  2459                           ;incstack = 0
  2460                           ; Regs used in _ADC_on: [wreg]
  2461                           
  2462                           
  2463                           ;ADC_setup.c: 36:     ADCON0bits.ADON = 1;
  2464     0232  1283               	bcf	3,5	;RP0=0, select bank0
  2465     0233  1303               	bcf	3,6	;RP1=0, select bank0
  2466     0234  141F               	bsf	31,0	;volatile
  2467     0235                     l1216:
  2468                           
  2469                           ;ADC_setup.c: 37:     _delay((unsigned long)((100)*(4000000/4000000.0)));
  2470     0235  3020               	movlw	32
  2471     0236  1283               	bcf	3,5	;RP0=0, select bank0
  2472     0237  1303               	bcf	3,6	;RP1=0, select bank0
  2473     0238  00B0               	movwf	??_ADC_on
  2474     0239                     u507:
  2475     0239  0BB0               	decfsz	??_ADC_on,f
  2476     023A  2A39               	goto	u507
  2477     023B  0000               	nop
  2478     023C                     l253:
  2479     023C  0008               	return
  2480     023D                     __end_of_ADC_on:
  2481                           
  2482                           	psect	text26
  2483     029D                     __ptext26:	
  2484 ;; *************** function _ADC_interruptions_on *****************
  2485 ;; Defined at:
  2486 ;;		line 89 in file "setup.c"
  2487 ;; Parameters:    Size  Location     Type
  2488 ;;		None
  2489 ;; Auto vars:     Size  Location     Type
  2490 ;;		None
  2491 ;; Return value:  Size  Location     Type
  2492 ;;                  1    wreg      void 
  2493 ;; Registers used:
  2494 ;;		None
  2495 ;; Tracked objects:
  2496 ;;		On entry : 0/0
  2497 ;;		On exit  : 0/0
  2498 ;;		Unchanged: 0/0
  2499 ;; Data sizes:     COMMON   BANK0   BANK1   BANK3   BANK2
  2500 ;;      Params:         0       0       0       0       0
  2501 ;;      Locals:         0       0       0       0       0
  2502 ;;      Temps:          0       0       0       0       0
  2503 ;;      Totals:         0       0       0       0       0
  2504 ;;Total ram usage:        0 bytes
  2505 ;; Hardware stack levels used: 1
  2506 ;; Hardware stack levels required when called: 2
  2507 ;; This function calls:
  2508 ;;		Nothing
  2509 ;; This function is called by:
  2510 ;;		_main
  2511 ;; This function uses a non-reentrant model
  2512 ;;
  2513                           
  2514     029D                     _ADC_interruptions_on:	
  2515                           ;psect for function _ADC_interruptions_on
  2516                           
  2517     029D                     l1388:	
  2518                           ;incstack = 0
  2519                           ; Regs used in _ADC_interruptions_on: []
  2520                           
  2521                           
  2522                           ;setup.c: 90:     PIE1bits.ADIE = 1;
  2523     029D  1683               	bsf	3,5	;RP0=1, select bank1
  2524     029E  1303               	bcf	3,6	;RP1=0, select bank1
  2525     029F  170C               	bsf	12,6	;volatile
  2526     02A0                     l207:
  2527     02A0  0008               	return
  2528     02A1                     __end_of_ADC_interruptions_on:
  2529                           
  2530                           	psect	text27
  2531     0268                     __ptext27:	
  2532 ;; *************** function _ADC_clock_fosc8 *****************
  2533 ;; Defined at:
  2534 ;;		line 14 in file "ADC_setup.c"
  2535 ;; Parameters:    Size  Location     Type
  2536 ;;		None
  2537 ;; Auto vars:     Size  Location     Type
  2538 ;;		None
  2539 ;; Return value:  Size  Location     Type
  2540 ;;                  1    wreg      void 
  2541 ;; Registers used:
  2542 ;;		None
  2543 ;; Tracked objects:
  2544 ;;		On entry : 0/0
  2545 ;;		On exit  : 0/0
  2546 ;;		Unchanged: 0/0
  2547 ;; Data sizes:     COMMON   BANK0   BANK1   BANK3   BANK2
  2548 ;;      Params:         0       0       0       0       0
  2549 ;;      Locals:         0       0       0       0       0
  2550 ;;      Temps:          0       0       0       0       0
  2551 ;;      Totals:         0       0       0       0       0
  2552 ;;Total ram usage:        0 bytes
  2553 ;; Hardware stack levels used: 1
  2554 ;; Hardware stack levels required when called: 2
  2555 ;; This function calls:
  2556 ;;		Nothing
  2557 ;; This function is called by:
  2558 ;;		_main
  2559 ;; This function uses a non-reentrant model
  2560 ;;
  2561                           
  2562     0268                     _ADC_clock_fosc8:	
  2563                           ;psect for function _ADC_clock_fosc8
  2564                           
  2565     0268                     l1398:	
  2566                           ;incstack = 0
  2567                           ; Regs used in _ADC_clock_fosc8: []
  2568                           
  2569                           
  2570                           ;ADC_setup.c: 15:     ADCON0bits.ADCS1 = 0;
  2571     0268  1283               	bcf	3,5	;RP0=0, select bank0
  2572     0269  1303               	bcf	3,6	;RP1=0, select bank0
  2573     026A  139F               	bcf	31,7	;volatile
  2574                           
  2575                           ;ADC_setup.c: 16:     ADCON0bits.ADCS0 = 1;
  2576     026B  171F               	bsf	31,6	;volatile
  2577     026C                     l241:
  2578     026C  0008               	return
  2579     026D                     __end_of_ADC_clock_fosc8:
  2580                           
  2581                           	psect	text28
  2582     024C                     __ptext28:	
  2583 ;; *************** function _ADC_AN12 *****************
  2584 ;; Defined at:
  2585 ;;		line 28 in file "ADC_setup.c"
  2586 ;; Parameters:    Size  Location     Type
  2587 ;;		None
  2588 ;; Auto vars:     Size  Location     Type
  2589 ;;		None
  2590 ;; Return value:  Size  Location     Type
  2591 ;;                  1    wreg      void 
  2592 ;; Registers used:
  2593 ;;		None
  2594 ;; Tracked objects:
  2595 ;;		On entry : 0/0
  2596 ;;		On exit  : 0/0
  2597 ;;		Unchanged: 0/0
  2598 ;; Data sizes:     COMMON   BANK0   BANK1   BANK3   BANK2
  2599 ;;      Params:         0       0       0       0       0
  2600 ;;      Locals:         0       0       0       0       0
  2601 ;;      Temps:          0       0       0       0       0
  2602 ;;      Totals:         0       0       0       0       0
  2603 ;;Total ram usage:        0 bytes
  2604 ;; Hardware stack levels used: 1
  2605 ;; Hardware stack levels required when called: 2
  2606 ;; This function calls:
  2607 ;;		Nothing
  2608 ;; This function is called by:
  2609 ;;		_main
  2610 ;; This function uses a non-reentrant model
  2611 ;;
  2612                           
  2613     024C                     _ADC_AN12:	
  2614                           ;psect for function _ADC_AN12
  2615                           
  2616     024C                     l1404:	
  2617                           ;incstack = 0
  2618                           ; Regs used in _ADC_AN12: []
  2619                           
  2620                           
  2621                           ;ADC_setup.c: 29:     ADCON0bits.CHS3 = 1;
  2622     024C  1283               	bcf	3,5	;RP0=0, select bank0
  2623     024D  1303               	bcf	3,6	;RP1=0, select bank0
  2624     024E  169F               	bsf	31,5	;volatile
  2625                           
  2626                           ;ADC_setup.c: 30:     ADCON0bits.CHS2 = 1;
  2627     024F  161F               	bsf	31,4	;volatile
  2628                           
  2629                           ;ADC_setup.c: 31:     ADCON0bits.CHS1 = 0;
  2630     0250  119F               	bcf	31,3	;volatile
  2631                           
  2632                           ;ADC_setup.c: 32:     ADCON0bits.CHS0 = 0;
  2633     0251  111F               	bcf	31,2	;volatile
  2634     0252                     l250:
  2635     0252  0008               	return
  2636     0253                     __end_of_ADC_AN12:
  2637                           
  2638                           	psect	text29
  2639     02A1                     __ptext29:	
  2640 ;; *************** function _ADC_8bits *****************
  2641 ;; Defined at:
  2642 ;;		line 24 in file "ADC_setup.c"
  2643 ;; Parameters:    Size  Location     Type
  2644 ;;		None
  2645 ;; Auto vars:     Size  Location     Type
  2646 ;;		None
  2647 ;; Return value:  Size  Location     Type
  2648 ;;                  1    wreg      void 
  2649 ;; Registers used:
  2650 ;;		None
  2651 ;; Tracked objects:
  2652 ;;		On entry : 0/0
  2653 ;;		On exit  : 0/0
  2654 ;;		Unchanged: 0/0
  2655 ;; Data sizes:     COMMON   BANK0   BANK1   BANK3   BANK2
  2656 ;;      Params:         0       0       0       0       0
  2657 ;;      Locals:         0       0       0       0       0
  2658 ;;      Temps:          0       0       0       0       0
  2659 ;;      Totals:         0       0       0       0       0
  2660 ;;Total ram usage:        0 bytes
  2661 ;; Hardware stack levels used: 1
  2662 ;; Hardware stack levels required when called: 2
  2663 ;; This function calls:
  2664 ;;		Nothing
  2665 ;; This function is called by:
  2666 ;;		_main
  2667 ;; This function uses a non-reentrant model
  2668 ;;
  2669                           
  2670     02A1                     _ADC_8bits:	
  2671                           ;psect for function _ADC_8bits
  2672                           
  2673     02A1                     l1402:	
  2674                           ;incstack = 0
  2675                           ; Regs used in _ADC_8bits: []
  2676                           
  2677                           
  2678                           ;ADC_setup.c: 25:       ADCON1bits.ADFM = 0;
  2679     02A1  1683               	bsf	3,5	;RP0=1, select bank1
  2680     02A2  1303               	bcf	3,6	;RP1=0, select bank1
  2681     02A3  139F               	bcf	31,7	;volatile
  2682     02A4                     l247:
  2683     02A4  0008               	return
  2684     02A5                     __end_of_ADC_8bits:
  2685                           
  2686                           	psect	text30
  2687     0137                     __ptext30:	
  2688 ;; *************** function _isr *****************
  2689 ;; Defined at:
  2690 ;;		line 76 in file "main.c"
  2691 ;; Parameters:    Size  Location     Type
  2692 ;;		None
  2693 ;; Auto vars:     Size  Location     Type
  2694 ;;		None
  2695 ;; Return value:  Size  Location     Type
  2696 ;;                  1    wreg      void 
  2697 ;; Registers used:
  2698 ;;		wreg, fsr0l, fsr0h, status,2, status,0, pclath, cstack
  2699 ;; Tracked objects:
  2700 ;;		On entry : 0/0
  2701 ;;		On exit  : 0/0
  2702 ;;		Unchanged: 0/0
  2703 ;; Data sizes:     COMMON   BANK0   BANK1   BANK3   BANK2
  2704 ;;      Params:         0       0       0       0       0
  2705 ;;      Locals:         0       0       0       0       0
  2706 ;;      Temps:          3       0       0       0       0
  2707 ;;      Totals:         3       0       0       0       0
  2708 ;;Total ram usage:        3 bytes
  2709 ;; Hardware stack levels used: 1
  2710 ;; Hardware stack levels required when called: 1
  2711 ;; This function calls:
  2712 ;;		_ADC_conversion
  2713 ;;		_contador
  2714 ;;		_mux
  2715 ;; This function is called by:
  2716 ;;		Interrupt level 1
  2717 ;; This function uses a non-reentrant model
  2718 ;;
  2719                           
  2720     0137                     _isr:	
  2721                           ;psect for function _isr
  2722                           
  2723     0137                     i1l1324:
  2724                           
  2725                           ;main.c: 77:     if (INTCONbits.T0IF == 1){
  2726     0137  1D0B               	btfss	11,2	;volatile
  2727     0138  293A               	goto	u44_21
  2728     0139  293B               	goto	u44_20
  2729     013A                     u44_21:
  2730     013A  2964               	goto	i1l1342
  2731     013B                     u44_20:
  2732     013B                     i1l1326:
  2733                           
  2734                           ;main.c: 78:         INTCONbits.T0IF = 0;
  2735     013B  110B               	bcf	11,2	;volatile
  2736     013C                     i1l1328:
  2737                           
  2738                           ;main.c: 79:         TMR0 = 236;
  2739     013C  30EC               	movlw	236
  2740     013D  1283               	bcf	3,5	;RP0=0, select bank0
  2741     013E  1303               	bcf	3,6	;RP1=0, select bank0
  2742     013F  0081               	movwf	1	;volatile
  2743     0140                     i1l1330:
  2744                           
  2745                           ;main.c: 80:         if (select == 0){
  2746     0140  0877               	movf	_select,w
  2747     0141  0478               	iorwf	_select+1,w
  2748     0142  1D03               	btfss	3,2
  2749     0143  2945               	goto	u45_21
  2750     0144  2946               	goto	u45_20
  2751     0145                     u45_21:
  2752     0145  2953               	goto	i1l1336
  2753     0146                     u45_20:
  2754     0146                     i1l1332:
  2755                           
  2756                           ;main.c: 81:             mux(select);
  2757     0146  0878               	movf	_select+1,w
  2758     0147  00F1               	movwf	mux@selector+1
  2759     0148  0877               	movf	_select,w
  2760     0149  00F0               	movwf	mux@selector
  2761     014A  120A  118A  21E0  120A  118A  	fcall	_mux
  2762     014F                     i1l1334:
  2763                           
  2764                           ;main.c: 82:             select = 1;
  2765     014F  3001               	movlw	1
  2766     0150  00F7               	movwf	_select
  2767     0151  3000               	movlw	0
  2768     0152  00F8               	movwf	_select+1
  2769     0153                     i1l1336:
  2770                           
  2771                           ;main.c: 84:         if (select == 1){
  2772     0153  0377               	decf	_select,w
  2773     0154  0478               	iorwf	_select+1,w
  2774     0155  1D03               	btfss	3,2
  2775     0156  2958               	goto	u46_21
  2776     0157  2959               	goto	u46_20
  2777     0158                     u46_21:
  2778     0158  2964               	goto	i1l1342
  2779     0159                     u46_20:
  2780     0159                     i1l1338:
  2781                           
  2782                           ;main.c: 85:             mux(select);
  2783     0159  0878               	movf	_select+1,w
  2784     015A  00F1               	movwf	mux@selector+1
  2785     015B  0877               	movf	_select,w
  2786     015C  00F0               	movwf	mux@selector
  2787     015D  120A  118A  21E0  120A  118A  	fcall	_mux
  2788     0162                     i1l1340:
  2789                           
  2790                           ;main.c: 86:             select = 0;
  2791     0162  01F7               	clrf	_select
  2792     0163  01F8               	clrf	_select+1
  2793     0164                     i1l1342:
  2794                           
  2795                           ;main.c: 89:     if (INTCONbits.RBIF == 1){
  2796     0164  1C0B               	btfss	11,0	;volatile
  2797     0165  2967               	goto	u47_21
  2798     0166  2968               	goto	u47_20
  2799     0167                     u47_21:
  2800     0167  296E               	goto	i1l1348
  2801     0168                     u47_20:
  2802     0168                     i1l1344:
  2803                           
  2804                           ;main.c: 90:         INTCONbits.RBIF = 0;
  2805     0168  100B               	bcf	11,0	;volatile
  2806     0169                     i1l1346:
  2807                           
  2808                           ;main.c: 91:         contador();
  2809     0169  120A  118A  2189  120A  118A  	fcall	_contador
  2810     016E                     i1l1348:
  2811                           
  2812                           ;main.c: 93:     if (PIR1bits.ADIF == 1){
  2813     016E  1283               	bcf	3,5	;RP0=0, select bank0
  2814     016F  1303               	bcf	3,6	;RP1=0, select bank0
  2815     0170  1F0C               	btfss	12,6	;volatile
  2816     0171  2973               	goto	u48_21
  2817     0172  2974               	goto	u48_20
  2818     0173                     u48_21:
  2819     0173  2980               	goto	i1l110
  2820     0174                     u48_20:
  2821     0174                     i1l1350:
  2822                           
  2823                           ;main.c: 94:         PIR1bits.ADIF = 0;
  2824     0174  130C               	bcf	12,6	;volatile
  2825     0175                     i1l1352:
  2826                           
  2827                           ;main.c: 95:         num_adc = ADC_conversion();
  2828     0175  120A  118A  2224  120A  118A  	fcall	_ADC_conversion
  2829     017A  0871               	movf	?_ADC_conversion+1,w
  2830     017B  1283               	bcf	3,5	;RP0=0, select bank0
  2831     017C  1303               	bcf	3,6	;RP1=0, select bank0
  2832     017D  00BC               	movwf	_num_adc+1
  2833     017E  0870               	movf	?_ADC_conversion,w
  2834     017F  00BB               	movwf	_num_adc
  2835     0180                     i1l110:
  2836     0180  0876               	movf	??_isr+2,w
  2837     0181  008A               	movwf	10
  2838     0182  0875               	movf	??_isr+1,w
  2839     0183  0084               	movwf	4
  2840     0184  0E74               	swapf	??_isr,w
  2841     0185  0083               	movwf	3
  2842     0186  0EFE               	swapf	btemp,f
  2843     0187  0E7E               	swapf	btemp,w
  2844     0188  0009               	retfie
  2845     0189                     __end_of_isr:
  2846                           
  2847                           	psect	intentry
  2848     0004                     __pintentry:	
  2849                           ;incstack = 0
  2850                           ; Regs used in _isr: [wreg-fsr0h+status,2+status,0+pclath+cstack]
  2851                           
  2852     0004                     interrupt_function:
  2853     007E                     saved_w	set	btemp
  2854     0004  00FE               	movwf	btemp
  2855     0005  0E03               	swapf	3,w
  2856     0006  00F4               	movwf	??_isr
  2857     0007  0804               	movf	4,w
  2858     0008  00F5               	movwf	??_isr+1
  2859     0009  080A               	movf	10,w
  2860     000A  00F6               	movwf	??_isr+2
  2861     000B  120A  118A  2937   	ljmp	_isr
  2862                           
  2863                           	psect	text31
  2864     01E0                     __ptext31:	
  2865 ;; *************** function _mux *****************
  2866 ;; Defined at:
  2867 ;;		line 14 in file "displays.c"
  2868 ;; Parameters:    Size  Location     Type
  2869 ;;  selector        2    0[COMMON] int 
  2870 ;; Auto vars:     Size  Location     Type
  2871 ;;		None
  2872 ;; Return value:  Size  Location     Type
  2873 ;;                  1    wreg      void 
  2874 ;; Registers used:
  2875 ;;		wreg, fsr0l, fsr0h, status,2, status,0
  2876 ;; Tracked objects:
  2877 ;;		On entry : 0/0
  2878 ;;		On exit  : 0/0
  2879 ;;		Unchanged: 0/0
  2880 ;; Data sizes:     COMMON   BANK0   BANK1   BANK3   BANK2
  2881 ;;      Params:         2       0       0       0       0
  2882 ;;      Locals:         0       0       0       0       0
  2883 ;;      Temps:          0       0       0       0       0
  2884 ;;      Totals:         2       0       0       0       0
  2885 ;;Total ram usage:        2 bytes
  2886 ;; Hardware stack levels used: 1
  2887 ;; This function calls:
  2888 ;;		Nothing
  2889 ;; This function is called by:
  2890 ;;		_isr
  2891 ;; This function uses a non-reentrant model
  2892 ;;
  2893                           
  2894     01E0                     _mux:	
  2895                           ;psect for function _mux
  2896                           
  2897     01E0                     i1l1226:	
  2898                           ;incstack = 0
  2899                           ; Regs used in _mux: [wreg-fsr0h+status,2+status,0]
  2900                           
  2901                           
  2902                           ;displays.c: 15:         if (selector == 0){
  2903     01E0  0870               	movf	mux@selector,w
  2904     01E1  0471               	iorwf	mux@selector+1,w
  2905     01E2  1D03               	btfss	3,2
  2906     01E3  29E5               	goto	u36_21
  2907     01E4  29E6               	goto	u36_20
  2908     01E5                     u36_21:
  2909     01E5  29F0               	goto	i1l1234
  2910     01E6                     u36_20:
  2911     01E6                     i1l1228:
  2912                           
  2913                           ;displays.c: 16:             PORTA = nums[H1];
  2914     01E6  1283               	bcf	3,5	;RP0=0, select bank0
  2915     01E7  1303               	bcf	3,6	;RP1=0, select bank0
  2916     01E8  0843               	movf	_H1,w
  2917     01E9  3E20               	addlw	(low (_nums| 0))& (0+255)
  2918     01EA  0084               	movwf	4
  2919     01EB  1383               	bcf	3,7	;select IRP bank0
  2920     01EC  0800               	movf	0,w
  2921     01ED  0085               	movwf	5	;volatile
  2922     01EE                     i1l1230:
  2923                           
  2924                           ;displays.c: 17:             PORTCbits.RC0 = 1;
  2925     01EE  1407               	bsf	7,0	;volatile
  2926     01EF                     i1l1232:
  2927                           
  2928                           ;displays.c: 18:             PORTCbits.RC1 = 0;
  2929     01EF  1087               	bcf	7,1	;volatile
  2930     01F0                     i1l1234:
  2931                           
  2932                           ;displays.c: 20:         if (selector == 1){
  2933     01F0  0370               	decf	mux@selector,w
  2934     01F1  0471               	iorwf	mux@selector+1,w
  2935     01F2  1D03               	btfss	3,2
  2936     01F3  29F5               	goto	u37_21
  2937     01F4  29F6               	goto	u37_20
  2938     01F5                     u37_21:
  2939     01F5  2A00               	goto	i1l279
  2940     01F6                     u37_20:
  2941     01F6                     i1l1236:
  2942                           
  2943                           ;displays.c: 21:             PORTA = nums[H2];
  2944     01F6  1283               	bcf	3,5	;RP0=0, select bank0
  2945     01F7  1303               	bcf	3,6	;RP1=0, select bank0
  2946     01F8  0841               	movf	_H2,w
  2947     01F9  3E20               	addlw	(low (_nums| 0))& (0+255)
  2948     01FA  0084               	movwf	4
  2949     01FB  1383               	bcf	3,7	;select IRP bank0
  2950     01FC  0800               	movf	0,w
  2951     01FD  0085               	movwf	5	;volatile
  2952     01FE                     i1l1238:
  2953                           
  2954                           ;displays.c: 22:             PORTCbits.RC0 = 0;
  2955     01FE  1007               	bcf	7,0	;volatile
  2956     01FF                     i1l1240:
  2957                           
  2958                           ;displays.c: 23:             PORTCbits.RC1 = 1;
  2959     01FF  1487               	bsf	7,1	;volatile
  2960     0200                     i1l279:
  2961     0200  0008               	return
  2962     0201                     __end_of_mux:
  2963                           
  2964                           	psect	text32
  2965     0189                     __ptext32:	
  2966 ;; *************** function _contador *****************
  2967 ;; Defined at:
  2968 ;;		line 100 in file "main.c"
  2969 ;; Parameters:    Size  Location     Type
  2970 ;;		None
  2971 ;; Auto vars:     Size  Location     Type
  2972 ;;		None
  2973 ;; Return value:  Size  Location     Type
  2974 ;;                  1    wreg      void 
  2975 ;; Registers used:
  2976 ;;		wreg, status,2, status,0
  2977 ;; Tracked objects:
  2978 ;;		On entry : 0/0
  2979 ;;		On exit  : 0/0
  2980 ;;		Unchanged: 0/0
  2981 ;; Data sizes:     COMMON   BANK0   BANK1   BANK3   BANK2
  2982 ;;      Params:         0       0       0       0       0
  2983 ;;      Locals:         0       0       0       0       0
  2984 ;;      Temps:          1       0       0       0       0
  2985 ;;      Totals:         1       0       0       0       0
  2986 ;;Total ram usage:        1 bytes
  2987 ;; Hardware stack levels used: 1
  2988 ;; This function calls:
  2989 ;;		Nothing
  2990 ;; This function is called by:
  2991 ;;		_isr
  2992 ;; This function uses a non-reentrant model
  2993 ;;
  2994                           
  2995     0189                     _contador:	
  2996                           ;psect for function _contador
  2997                           
  2998     0189                     i1l1242:	
  2999                           ;incstack = 0
  3000                           ; Regs used in _contador: [wreg+status,2+status,0]
  3001                           
  3002                           
  3003                           ;main.c: 101:     if (PORTBbits.RB6 == 0){
  3004     0189  1283               	bcf	3,5	;RP0=0, select bank0
  3005     018A  1303               	bcf	3,6	;RP1=0, select bank0
  3006     018B  1B06               	btfsc	6,6	;volatile
  3007     018C  298E               	goto	u38_21
  3008     018D  298F               	goto	u38_20
  3009     018E                     u38_21:
  3010     018E  2993               	goto	i1l1246
  3011     018F                     u38_20:
  3012     018F                     i1l1244:
  3013                           
  3014                           ;main.c: 102:         bandera = 1;}
  3015     018F  3001               	movlw	1
  3016     0190  00F9               	movwf	_bandera
  3017     0191  3000               	movlw	0
  3018     0192  00FA               	movwf	_bandera+1
  3019     0193                     i1l1246:
  3020                           
  3021                           ;main.c: 103:     if (PORTBbits.RB6 == 1 && bandera == 1){
  3022     0193  1F06               	btfss	6,6	;volatile
  3023     0194  2996               	goto	u39_21
  3024     0195  2997               	goto	u39_20
  3025     0196                     u39_21:
  3026     0196  29A3               	goto	i1l1254
  3027     0197                     u39_20:
  3028     0197                     i1l1248:
  3029     0197  0379               	decf	_bandera,w
  3030     0198  047A               	iorwf	_bandera+1,w
  3031     0199  1D03               	btfss	3,2
  3032     019A  299C               	goto	u40_21
  3033     019B  299D               	goto	u40_20
  3034     019C                     u40_21:
  3035     019C  29A3               	goto	i1l1254
  3036     019D                     u40_20:
  3037     019D                     i1l1250:
  3038                           
  3039                           ;main.c: 104:         PORTD++;
  3040     019D  3001               	movlw	1
  3041     019E  00F0               	movwf	??_contador
  3042     019F  0870               	movf	??_contador,w
  3043     01A0  0788               	addwf	8,f	;volatile
  3044     01A1                     i1l1252:
  3045                           
  3046                           ;main.c: 105:         bandera = 0;
  3047     01A1  01F9               	clrf	_bandera
  3048     01A2  01FA               	clrf	_bandera+1
  3049     01A3                     i1l1254:
  3050                           
  3051                           ;main.c: 107:     if (PORTBbits.RB7 == 0){
  3052     01A3  1B86               	btfsc	6,7	;volatile
  3053     01A4  29A6               	goto	u41_21
  3054     01A5  29A7               	goto	u41_20
  3055     01A6                     u41_21:
  3056     01A6  29AB               	goto	i1l1258
  3057     01A7                     u41_20:
  3058     01A7                     i1l1256:
  3059                           
  3060                           ;main.c: 108:         bandera = 2;}
  3061     01A7  3002               	movlw	2
  3062     01A8  00F9               	movwf	_bandera
  3063     01A9  3000               	movlw	0
  3064     01AA  00FA               	movwf	_bandera+1
  3065     01AB                     i1l1258:
  3066                           
  3067                           ;main.c: 109:     if (PORTBbits.RB7 == 1 && bandera == 2){
  3068     01AB  1F86               	btfss	6,7	;volatile
  3069     01AC  29AE               	goto	u42_21
  3070     01AD  29AF               	goto	u42_20
  3071     01AE                     u42_21:
  3072     01AE  29BA               	goto	i1l117
  3073     01AF                     u42_20:
  3074     01AF                     i1l1260:
  3075     01AF  3002               	movlw	2
  3076     01B0  0679               	xorwf	_bandera,w
  3077     01B1  047A               	iorwf	_bandera+1,w
  3078     01B2  1D03               	btfss	3,2
  3079     01B3  29B5               	goto	u43_21
  3080     01B4  29B6               	goto	u43_20
  3081     01B5                     u43_21:
  3082     01B5  29BA               	goto	i1l117
  3083     01B6                     u43_20:
  3084     01B6                     i1l1262:
  3085                           
  3086                           ;main.c: 110:         PORTD--;
  3087     01B6  3001               	movlw	1
  3088     01B7  0288               	subwf	8,f	;volatile
  3089     01B8                     i1l1264:
  3090                           
  3091                           ;main.c: 111:         bandera = 0;
  3092     01B8  01F9               	clrf	_bandera
  3093     01B9  01FA               	clrf	_bandera+1
  3094     01BA                     i1l117:
  3095     01BA  0008               	return
  3096     01BB                     __end_of_contador:
  3097                           
  3098                           	psect	text33
  3099     0224                     __ptext33:	
  3100 ;; *************** function _ADC_conversion *****************
  3101 ;; Defined at:
  3102 ;;		line 40 in file "ADC_setup.c"
  3103 ;; Parameters:    Size  Location     Type
  3104 ;;		None
  3105 ;; Auto vars:     Size  Location     Type
  3106 ;;		None
  3107 ;; Return value:  Size  Location     Type
  3108 ;;                  2    0[COMMON] int 
  3109 ;; Registers used:
  3110 ;;		wreg
  3111 ;; Tracked objects:
  3112 ;;		On entry : 0/0
  3113 ;;		On exit  : 0/0
  3114 ;;		Unchanged: 0/0
  3115 ;; Data sizes:     COMMON   BANK0   BANK1   BANK3   BANK2
  3116 ;;      Params:         2       0       0       0       0
  3117 ;;      Locals:         0       0       0       0       0
  3118 ;;      Temps:          2       0       0       0       0
  3119 ;;      Totals:         4       0       0       0       0
  3120 ;;Total ram usage:        4 bytes
  3121 ;; Hardware stack levels used: 1
  3122 ;; This function calls:
  3123 ;;		Nothing
  3124 ;; This function is called by:
  3125 ;;		_isr
  3126 ;; This function uses a non-reentrant model
  3127 ;;
  3128                           
  3129     0224                     _ADC_conversion:	
  3130                           ;psect for function _ADC_conversion
  3131                           
  3132     0224                     i1l1266:	
  3133                           ;incstack = 0
  3134                           ; Regs used in _ADC_conversion: [wreg]
  3135                           
  3136                           
  3137                           ;ADC_setup.c: 41:     digital_value = ADRESH;
  3138     0224  1283               	bcf	3,5	;RP0=0, select bank0
  3139     0225  1303               	bcf	3,6	;RP1=0, select bank0
  3140     0226  081E               	movf	30,w	;volatile
  3141     0227  00F2               	movwf	??_ADC_conversion
  3142     0228  01F3               	clrf	??_ADC_conversion+1
  3143     0229  0872               	movf	??_ADC_conversion,w
  3144     022A  00FB               	movwf	_digital_value
  3145     022B  0873               	movf	??_ADC_conversion+1,w
  3146     022C  00FC               	movwf	_digital_value+1
  3147                           
  3148                           ;ADC_setup.c: 42:     return digital_value;
  3149     022D  087C               	movf	_digital_value+1,w
  3150     022E  00F1               	movwf	?_ADC_conversion+1
  3151     022F  087B               	movf	_digital_value,w
  3152     0230  00F0               	movwf	?_ADC_conversion
  3153     0231                     i1l256:
  3154     0231  0008               	return
  3155     0232                     __end_of_ADC_conversion:
  3156     007E                     btemp	set	126	;btemp
  3157     007E                     wtemp0	set	126
  3158                           
  3159                           	psect	idloc
  3160                           
  3161                           ;Config register IDLOC0 @ 0x2000
  3162                           ;	unspecified, using default values
  3163     2000                     	org	8192
  3164     2000  3FFF               	dw	16383
  3165                           
  3166                           ;Config register IDLOC1 @ 0x2001
  3167                           ;	unspecified, using default values
  3168     2001                     	org	8193
  3169     2001  3FFF               	dw	16383
  3170                           
  3171                           ;Config register IDLOC2 @ 0x2002
  3172                           ;	unspecified, using default values
  3173     2002                     	org	8194
  3174     2002  3FFF               	dw	16383
  3175                           
  3176                           ;Config register IDLOC3 @ 0x2003
  3177                           ;	unspecified, using default values
  3178     2003                     	org	8195
  3179     2003  3FFF               	dw	16383
  3180                           
  3181                           	psect	config
  3182                           
  3183                           ;Config register CONFIG1 @ 0x2007
  3184                           ;	Oscillator Selection bits
  3185                           ;	FOSC = INTRC_NOCLKOUT, INTOSCIO oscillator: I/O function on RA6/OSC2/CLKOUT pin, I/O f
      +                          unction on RA7/OSC1/CLKIN
  3186                           ;	Watchdog Timer Enable bit
  3187                           ;	WDTE = OFF, WDT disabled and can be enabled by SWDTEN bit of the WDTCON register
  3188                           ;	Power-up Timer Enable bit
  3189                           ;	PWRTE = OFF, PWRT disabled
  3190                           ;	RE3/MCLR pin function select bit
  3191                           ;	MCLRE = OFF, RE3/MCLR pin function is digital input, MCLR internally tied to VDD
  3192                           ;	Code Protection bit
  3193                           ;	CP = OFF, Program memory code protection is disabled
  3194                           ;	Data Code Protection bit
  3195                           ;	CPD = OFF, Data memory code protection is disabled
  3196                           ;	Brown Out Reset Selection bits
  3197                           ;	BOREN = OFF, BOR disabled
  3198                           ;	Internal External Switchover bit
  3199                           ;	IESO = OFF, Internal/External Switchover mode is disabled
  3200                           ;	Fail-Safe Clock Monitor Enabled bit
  3201                           ;	FCMEN = OFF, Fail-Safe Clock Monitor is disabled
  3202                           ;	Low Voltage Programming Enable bit
  3203                           ;	LVP = OFF, RB3 pin has digital I/O, HV on MCLR must be used for programming
  3204                           ;	In-Circuit Debugger Mode bit
  3205                           ;	DEBUG = 0x1, unprogramme  3206     2007                     	org	8199
  3207     2007  20D4               	dw	8404
  3208                           
  3209                           ;Config register CONFIG2 @ 0x2008
  3210                           ;	Brown-out Reset Selection bit
  3211                           ;	BOR4V = BOR40V, Brown-out Reset set to 4.0V
  3212                           ;	Flash Program Memory Self Write Enable bits
  3213                           ;	WRT = OFF, Write protection off
  3214     2008                     	org	8200
  3215     2008  3FFF               	dw	16383

Data Sizes:
    Strings     0
    Constant    0
    Data        16
    BSS         16
    Persistent  0
    Stack       0

Auto Spaces:
    Space          Size  Autos    Used
    COMMON           14      7      13
    BANK0            80     11      37
    BANK1            80      0       0
    BANK3            96      0       0
    BANK2            96      0       0

Pointer List with Targets:

    None.

Critical Paths under _main in COMMON

    None.

Critical Paths under _isr in COMMON

    _isr->_ADC_conversion

Critical Paths under _main in BANK0

    _main->_display_hex
    _display_hex->___awdiv

Critical Paths under _isr in BANK0

    None.

Critical Paths under _main in BANK1

    None.

Critical Paths under _isr in BANK1

    None.

Critical Paths under _main in BANK3

    None.

Critical Paths under _isr in BANK3

    None.

Critical Paths under _main in BANK2

    None.

Critical Paths under _isr in BANK2

    None.

Call Graph Tables:

 ---------------------------------------------------------------------------------
 (Depth) Function   	        Calls       Base Space   Used Autos Params    Refs
 ---------------------------------------------------------------------------------
 (0) _main                                                 0     0      0     604
                          _ADC_8bits
                           _ADC_AN12
                    _ADC_clock_fosc8
               _ADC_interruptions_on
                             _ADC_on
              _ADC_reference_default
             _Timer0_interruption_on
                _Timer0_prescaler256
                      _Timer0_source
                          _analog_12
                        _digital_low
                        _display_hex
            _global_interruptions_on
                      _initiateports
             _interrupt_onchange_RB6
             _interrupt_onchange_RB7
                            _osc4MHz
        _peripheral_interruptions_on
                       _pinRB0_digin
                       _pinRB6_digin
                       _pinRB7_digin
                       _portA_digout
             _portB_interruptions_on
                      _portB_pullups
                       _portC_digout
                       _portD_digout
                         _pullup_RB6
                         _pullup_RB7
 ---------------------------------------------------------------------------------
 (1) _pullup_RB7                                           0     0      0       0
 ---------------------------------------------------------------------------------
 (1) _pullup_RB6                                           0     0      0       0
 ---------------------------------------------------------------------------------
 (1) _portD_digout                                         0     0      0       0
 ---------------------------------------------------------------------------------
 (1) _portC_digout                                         0     0      0       0
 ---------------------------------------------------------------------------------
 (1) _portB_pullups                                        0     0      0       0
 ---------------------------------------------------------------------------------
 (1) _portB_interruptions_on                               0     0      0       0
 ---------------------------------------------------------------------------------
 (1) _portA_digout                                         0     0      0       0
 ---------------------------------------------------------------------------------
 (1) _pinRB7_digin                                         0     0      0       0
 ---------------------------------------------------------------------------------
 (1) _pinRB6_digin                                         0     0      0       0
 ---------------------------------------------------------------------------------
 (1) _pinRB0_digin                                         0     0      0       0
 ---------------------------------------------------------------------------------
 (1) _peripheral_interruptions_on                          0     0      0       0
 ---------------------------------------------------------------------------------
 (1) _osc4MHz                                              0     0      0       0
 ---------------------------------------------------------------------------------
 (1) _interrupt_onchange_RB7                               0     0      0       0
 ---------------------------------------------------------------------------------
 (1) _interrupt_onchange_RB6                               0     0      0       0
 ---------------------------------------------------------------------------------
 (1) _initiateports                                        0     0      0       0
 ---------------------------------------------------------------------------------
 (1) _global_interruptions_on                              0     0      0       0
 ---------------------------------------------------------------------------------
 (1) _display_hex                                          2     0      2     604
                                              9 BANK0      2     0      2
                            ___awdiv
 ---------------------------------------------------------------------------------
 (2) ___awdiv                                              9     5      4     452
                                              0 BANK0      9     5      4
 ---------------------------------------------------------------------------------
 (1) _digital_low                                          0     0      0       0
 ---------------------------------------------------------------------------------
 (1) _analog_12                                            0     0      0       0
 ---------------------------------------------------------------------------------
 (1) _Timer0_source                                        0     0      0       0
 ---------------------------------------------------------------------------------
 (1) _Timer0_prescaler256                                  0     0      0       0
 ---------------------------------------------------------------------------------
 (1) _Timer0_interruption_on                               0     0      0       0
 ---------------------------------------------------------------------------------
 (1) _ADC_reference_default                                0     0      0       0
 ---------------------------------------------------------------------------------
 (1) _ADC_on                                               1     1      0       0
                                              0 BANK0      1     1      0
 ---------------------------------------------------------------------------------
 (1) _ADC_interruptions_on                                 0     0      0       0
 ---------------------------------------------------------------------------------
 (1) _ADC_clock_fosc8                                      0     0      0       0
 ---------------------------------------------------------------------------------
 (1) _ADC_AN12                                             0     0      0       0
 ---------------------------------------------------------------------------------
 (1) _ADC_8bits                                            0     0      0       0
 ---------------------------------------------------------------------------------
 Estimated maximum stack depth 2
 ---------------------------------------------------------------------------------
 (Depth) Function   	        Calls       Base Space   Used Autos Params    Refs
 ---------------------------------------------------------------------------------
 (3) _isr                                                  3     3      0     196
                                              4 COMMON     3     3      0
                     _ADC_conversion
                           _contador
                                _mux
 ---------------------------------------------------------------------------------
 (4) _mux                                                  2     0      2     196
                                              0 COMMON     2     0      2
 ---------------------------------------------------------------------------------
 (4) _contador                                             1     1      0       0
                                              0 COMMON     1     1      0
 ---------------------------------------------------------------------------------
 (4) _ADC_conversion                                       4     2      2       0
                                              0 COMMON     4     2      2
 ---------------------------------------------------------------------------------
 Estimated maximum stack depth 4
 ---------------------------------------------------------------------------------

 Call Graph Graphs:

 _main (ROOT)
   _ADC_8bits
   _ADC_AN12
   _ADC_clock_fosc8
   _ADC_interruptions_on
   _ADC_on
   _ADC_reference_default
   _Timer0_interruption_on
   _Timer0_prescaler256
   _Timer0_source
   _analog_12
   _digital_low
   _display_hex
     ___awdiv
   _global_interruptions_on
   _initiateports
   _interrupt_onchange_RB6
   _interrupt_onchange_RB7
   _osc4MHz
   _peripheral_interruptions_on
   _pinRB0_digin
   _pinRB6_digin
   _pinRB7_digin
   _portA_digout
   _portB_interruptions_on
   _portB_pullups
   _portC_digout
   _portD_digout
   _pullup_RB6
   _pullup_RB7

 _isr (ROOT)
   _ADC_conversion
   _contador
   _mux

 Address spaces:
Name               Size   Autos  Total    Cost      Usage
BANK3               60      0       0       9        0.0%
BITBANK3            60      0       0       8        0.0%
SFR3                 0      0       0       4        0.0%
BITSFR3              0      0       0       4        0.0%
BANK2               60      0       0      11        0.0%
BITBANK2            60      0       0      10        0.0%
SFR2                 0      0       0       5        0.0%
BITSFR2              0      0       0       5        0.0%
BANK1               50      0       0       7        0.0%
BITBANK1            50      0       0       6        0.0%
SFR1                 0      0       0       2        0.0%
BITSFR1              0      0       0       2        0.0%
BANK0               50      B      25       5       46.2%
BITBANK0            50      0       0       4        0.0%
SFR0                 0      0       0       1        0.0%
BITSFR0              0      0       0       1        0.0%
COMMON               E      7       D       1       92.9%
BITCOMMON            E      0       0       0        0.0%
CODE                 0      0       0       0        0.0%
DATA                 0      0      32      12        0.0%
ABS                  0      0      32       3        0.0%
NULL                 0      0       0       0        0.0%
STACK                0      0       0       2        0.0%
EEDATA             100      0       0       0        0.0%


Microchip Technology PIC Macro Assembler V2.40 build 20220703182018 
Symbol Table                                                                                   Tue Jan 24 01:19:14 2023

                                  pc 0002                         ?_display_hex 0039  
                                 _H1 0043                                   _H2 0041  
                       ___awdiv@sign 0036                                   fsr 0004  
                                l201 02A8                                  l210 02AC  
                                l204 02A6                                  l213 0262  
                                l222 0274                                  l207 02A0  
                                l216 0258                                  l241 026C  
                                l225 0294                                  l250 0252  
                                l162 029C                                  l171 0284  
                                l219 0270                                  l244 0267  
                                l228 0298                                  l156 024B  
                                l180 0278                                  l253 023C  
                                l247 02A4                                  l159 0244  
                                l183 0288                                  l168 025D  
                                l192 0280                                  l177 027C  
                                l282 01C5                                  l186 028C  
                                l523 0136                                  l195 02AA  
                                l284 01DF                                  l189 0290  
                                u310 0114                                  u311 0113  
                                u305 0104                                  u330 0128  
                                u250 00D5                                  u331 0127  
                                u315 0110                                  u251 00D4  
                                u340 012D                                  u260 00E0  
                                u341 012C                                  u325 011C  
                                u261 00DF                                  u270 00F1  
                                u271 00F0                                  u290 0103  
                                u507 0239                                  u291 0102  
                                u285 00F5                                  u490 01C3  
                                u491 01C2                      ??_portB_pullups 0030  
                                _dis 003F                                  _isr 0137  
                                _mux 01E0                                  fsr0 0004  
                                indf 0000             ??_portB_interruptions_on 0030  
                               l1120 00D1                                 l1130 00E5  
                               l1122 00D5                                 l1140 00FB  
                               l1132 00E9                                 l1124 00DA  
                               l1214 0232                                 l1150 011B  
                               l1142 00FF                                 l1134 00EB  
                               l1126 00DC                                 l1118 00CE  
                               l1216 0235                                 l1400 0263  
                               l1152 0122                                 l1144 0103  
                               l1136 00F1                                 l1128 00E0  
                               l1402 02A1                                 l1146 0114  
                               l1138 00F4                                 l1154 0128  
                               l1410 01C6                                 l1404 024C  
                               l1156 012D                                 l1148 011A  
                               l1412 01CC                                 l1420 004C  
                               l1158 0132                                 l1406 01BB  
                               l1430 0065                                 l1422 0051  
                               l1414 0033                                 l1360 0259  
                               l1408 01C3                                 l1440 007E  
                               l1432 006A                                 l1424 0056  
                               l1416 0042                                 l1354 0245  
                               l1370 0289                                 l1362 0281  
                               l1450 0097                                 l1442 0083  
                               l1434 006F                                 l1426 005B  
                               l1418 0047                                 l1380 02AB  
                               l1356 023D                                 l1372 028D  
                               l1364 0279                                 l1460 00B0  
                               l1452 009C                                 l1444 0088  
                               l1436 0074                                 l1428 0060  
                               l1382 025E                                 l1358 0299  
                               l1374 027D                                 l1366 0275  
                               l1390 026D                                 l1462 00B5  
                               l1454 00A1                                 l1446 008D  
                               l1438 0079                                 l1384 0253  
                               l1376 02A9                                 l1368 0285  
                               l1392 0271                                 l1464 00BA  
                               l1456 00A6                                 l1448 0092  
                               l1394 0291                                 l1378 02A7  
                               l1386 02A5                                 l1466 00BE  
                               l1458 00AB                                 l1388 029D  
                               l1396 0295                                 l1398 0268  
                               ?_isr 0070                                 ?_mux 0070  
                               _TMR0 0001                     __end_of_ADC_AN12 0253  
                               _main 0033                                 _nums 0020  
                               btemp 007E                ??_Timer0_prescaler256 0030  
                               start 000E                                ??_isr 0074  
           ??_Timer0_interruption_on 0030                                ??_mux 0072  
                              ?_main 0070                      __end_of___awdiv 0137  
                              _ANSEL 0188                      ___awdiv@divisor 0030  
                              i1l110 0180                                i1l117 01BA  
                              i1l256 0231                                i1l279 0200  
                    ___awdiv@counter 0035                                u40_20 019D  
                              u40_21 019C                                u41_20 01A7  
                              u41_21 01A6                                u42_20 01AF  
                              u42_21 01AE                                u43_20 01B6  
                              u43_21 01B5                                _PORTA 0005  
                              _PORTB 0006                                _PORTC 0007  
                              _PORTD 0008                                _PORTE 0009  
                              u36_20 01E6                                u44_20 013B  
                              u36_21 01E5                                u44_21 013A  
                              u37_20 01F6                                u45_20 0146  
                              u37_21 01F5                                u45_21 0145  
                              u38_20 018F                                u46_20 0159  
                              u38_21 018E                                u46_21 0158  
                              u39_20 0197                                u47_20 0168  
                              u39_21 0196                                u47_21 0167  
                              u48_20 0174                                u48_21 0173  
                              _TRISA 0085                                _TRISB 0086  
                              _TRISC 0087                                _TRISD 0088  
                    __end_of_osc4MHz 024C                        ?_pinRB0_digin 0070  
                  __end_of_ADC_8bits 02A5                                _value 003D  
                      ?_pinRB6_digin 0070                                pclath 000A  
                      ?_pinRB7_digin 0070                                status 0003  
                              wtemp0 007E            ??_global_interruptions_on 0030  
                    __initialization 0011                         __end_of_main 00CE  
              __end_of_Timer0_source 0263                               ??_main 003B  
                     ??_pinRB0_digin 0030                     ??_ADC_conversion 0072  
                             _ADRESH 001E                     ___awdiv@dividend 0032  
                             _ADC_on 0232                       ??_pinRB6_digin 0030  
                     ??_pinRB7_digin 0030                               _ANSELH 0189  
                             i1l1230 01EE                               i1l1240 01FF  
                             i1l1232 01EF                               i1l1250 019D  
                             i1l1242 0189                               i1l1234 01F0  
                             i1l1226 01E0                               i1l1330 0140  
                             i1l1260 01AF                               i1l1252 01A1  
                             i1l1244 018F                               i1l1236 01F6  
                             i1l1228 01E6                               i1l1340 0162  
                             i1l1332 0146                               i1l1324 0137  
                             i1l1262 01B6                               i1l1254 01A3  
                             i1l1246 0193                               i1l1238 01FE  
                             i1l1350 0174                               i1l1334 014F  
                             i1l1326 013B                               i1l1342 0164  
                             i1l1264 01B8                               i1l1256 01A7  
                             i1l1248 0197                               i1l1352 0175  
                             i1l1344 0168                               i1l1336 0153  
                             i1l1328 013C                               i1l1266 0224  
                             i1l1258 01AB                               i1l1346 0169  
                             i1l1338 0159                               i1l1348 016E  
           ??_interrupt_onchange_RB6 0030             ??_interrupt_onchange_RB7 0030  
                   __end_of_contador 01BB                            ??___awdiv 0034  
                   ___awdiv@quotient 0037                               _select 0077  
    __end_of_global_interruptions_on 02AB                            ?_ADC_AN12 0070  
                          ??_osc4MHz 0030                               saved_w 007E  
            ??_ADC_reference_default 0030              __end_of__initialization 002F  
                     __pcstackCOMMON 0070                    ??_ADC_clock_fosc8 0030  
                       __pidataBANK0 0214               _portB_interruptions_on 02A5  
                         ??_ADC_AN12 0030  __end_of_peripheral_interruptions_on 02A9  
        _peripheral_interruptions_on 02A7                       _OPTION_REGbits 0081  
                            ?_ADC_on 0070               _Timer0_interruption_on 02AB  
                         __pbssBANK0 003B                           __pmaintext 0033  
               __end_of_pinRB0_digin 0291                           __pintentry 0004  
                      _initiateports 023D                 __end_of_pinRB6_digin 028D  
               __end_of_pinRB7_digin 0289                __end_of_portB_pullups 0281  
        __end_of_Timer0_prescaler256 0259                            ?_contador 0070  
                  __end_of_analog_12 025E                            _ADC_8bits 02A1  
                     ?_initiateports 0070                              ___awdiv 00CE  
                            _bandera 0079               _interrupt_onchange_RB6 0295  
             _interrupt_onchange_RB7 0291                              __ptext1 026D  
                            __ptext2 0271                              __ptext3 0275  
                            __ptext4 0279                              __ptext5 027D  
                            __ptext6 02A5                              __ptext7 0281  
                            __ptext8 0285                              __ptext9 0289  
                        mux@selector 0070                              _osc4MHz 0245  
                            _num_adc 003B                        ?_portA_digout 0070  
                      ?_portC_digout 0070                 end_of_initialization 002F  
                      ?_portD_digout 0070                           ??_contador 0070  
                         ?_ADC_8bits 0070                        ??_digital_low 0030  
                          _PORTBbits 0006                            _PORTCbits 0007  
                          _TRISBbits 0086                       ??_portA_digout 0030  
                     ??_portC_digout 0030                       ??_portD_digout 0030  
                         _pullup_RB6 0271                           _pullup_RB7 026D  
           ?_global_interruptions_on 0070                      _ADC_clock_fosc8 0268  
                     __end_of_ADC_on 023D        __end_of_ADC_reference_default 0268  
            ?_portB_interruptions_on 0070                      ??_initiateports 0030  
                      ??_display_hex 003B                  start_initialization 0011  
            ?_Timer0_interruption_on 0070                  __end_of_digital_low 029D  
                        __end_of_isr 0189                          __end_of_mux 0201  
                       _pinRB0_digin 028D                             ??_ADC_on 0030  
                       _pinRB6_digin 0289                         _pinRB7_digin 0285  
                        ??_ADC_8bits 0030       __end_of_portB_interruptions_on 02A7  
       __end_of_ADC_interruptions_on 02A1                           init_fetch0 0201  
                        __pdataBANK0 0020                        _Timer0_source 025E  
     __end_of_Timer0_interruption_on 02AD                  __end_of_display_hex 01E0  
                        __pbssCOMMON 0077                            ___latbits 0002  
            __end_of_ADC_clock_fosc8 026D                        __pcstackBANK0 0030  
                        ?_pullup_RB6 0070                          ?_pullup_RB7 0070  
                          _analog_12 0259                 __end_of_portA_digout 0285  
            ?_interrupt_onchange_RB6 0070              ?_interrupt_onchange_RB7 0070  
                           ?___awdiv 0030                       ?_Timer0_source 0070  
               __end_of_portC_digout 027D                 __end_of_portD_digout 0279  
                        _digital_low 0299                             _ADC_AN12 024C  
                           ?_osc4MHz 0070                    interrupt_function 0004  
                           _IOCBbits 0096                             _PIE1bits 008C  
                         ?_analog_12 0070                             _PIR1bits 000C  
     __end_of_interrupt_onchange_RB6 0299       __end_of_interrupt_onchange_RB7 0295  
                      _digital_value 007B                          _display_hex 01BB  
                         _ADCON0bits 001F                           _ADCON1bits 009F  
                           _WPUBbits 0095                     ?_ADC_clock_fosc8 0070  
               _ADC_interruptions_on 029D                       _ADC_conversion 0224  
                    ??_Timer0_source 0030         ?_peripheral_interruptions_on 0070  
                      _portB_pullups 027D                             __ptext10 028D  
                           __ptext11 02A7                             __ptext20 0259  
                           __ptext12 0245                             __ptext21 025E  
                           __ptext13 0291                             __ptext30 0137  
                           __ptext22 0253                             __ptext14 0295  
                           __ptext31 01E0                             __ptext23 02AB  
                           __ptext15 023D                             __ptext32 0189  
                           __ptext24 0263                             __ptext16 02A9  
                           __ptext33 0224                             __ptext25 0232  
                           __ptext17 01BB                             __ptext26 029D  
                           __ptext18 00CE                             __ptext27 0268  
                           __ptext19 0299                             __ptext28 024C  
                           __ptext29 02A1                ?_ADC_interruptions_on 0070  
                           _contador 0189                     display_hex@value 0039  
             __end_of_ADC_conversion 0232                _ADC_reference_default 0263  
                        ??_analog_12 0030                __end_of_initiateports 0245  
                         _INTCONbits 000B                       ?_portB_pullups 0070  
      ??_peripheral_interruptions_on 0030                             init_ram0 0205  
                       _portA_digout 0281                         ??_pullup_RB6 0030  
                       ??_pullup_RB7 0030                         _portC_digout 0279  
                           intlevel1 0000                         _portD_digout 0275  
                    ?_ADC_conversion 0070                           _OSCCONbits 008F  
                 __end_of_pullup_RB6 0275                   __end_of_pullup_RB7 0271  
                       ?_digital_low 0070                  _Timer0_prescaler256 0253  
             ??_ADC_interruptions_on 0030               ?_ADC_reference_default 0070  
               ?_Timer0_prescaler256 0070              _global_interruptions_on 02A9  
